
valve_switch.elf:     file format elf32-littlearm

Sections:
Idx Name          Size      VMA       LMA       File off  Algn
  0 .isr_vector   00000190  0800d000  0800d000  0000d000  2**0
                  CONTENTS, ALLOC, LOAD, READONLY, DATA
  1 .text         00002928  0800d800  0800d800  0000d800  2**3
                  CONTENTS, ALLOC, LOAD, READONLY, CODE
  2 .rodata       000006e8  08010128  08010128  00010128  2**2
                  CONTENTS, ALLOC, LOAD, READONLY, DATA
  3 .ARM.extab    00000000  08010810  08010810  0001403c  2**0
                  CONTENTS
  4 .ARM          00000008  08010810  08010810  00010810  2**2
                  CONTENTS, ALLOC, LOAD, READONLY, DATA
  5 .preinit_array 00000000  08010818  08010818  0001403c  2**0
                  CONTENTS, ALLOC, LOAD, DATA
  6 .init_array   00000008  08010818  08010818  00010818  2**2
                  CONTENTS, ALLOC, LOAD, DATA
  7 .fini_array   00000008  08010820  08010820  00010820  2**2
                  CONTENTS, ALLOC, LOAD, DATA
  8 .data         0000003c  20004000  08010828  00014000  2**2
                  CONTENTS, ALLOC, LOAD, DATA
  9 .bss          000008a4  20004040  08010864  00014040  2**3
                  ALLOC
 10 .ARM.attributes 00000030  00000000  00000000  0001403c  2**0
                  CONTENTS, READONLY
 11 .debug_info   0000d398  00000000  00000000  0001406c  2**0
                  CONTENTS, READONLY, DEBUGGING
 12 .debug_abbrev 00001e1e  00000000  00000000  00021404  2**0
                  CONTENTS, READONLY, DEBUGGING
 13 .debug_loc    00003a1b  00000000  00000000  00023222  2**0
                  CONTENTS, READONLY, DEBUGGING
 14 .debug_aranges 000003f8  00000000  00000000  00026c40  2**3
                  CONTENTS, READONLY, DEBUGGING
 15 .debug_ranges 00000348  00000000  00000000  00027038  2**3
                  CONTENTS, READONLY, DEBUGGING
 16 .debug_macro  000020a1  00000000  00000000  00027380  2**0
                  CONTENTS, READONLY, DEBUGGING
 17 .debug_line   00003cb8  00000000  00000000  00029421  2**0
                  CONTENTS, READONLY, DEBUGGING
 18 .debug_str    000839d1  00000000  00000000  0002d0d9  2**0
                  CONTENTS, READONLY, DEBUGGING
 19 .comment      0000007e  00000000  00000000  000b0aaa  2**0
                  CONTENTS, READONLY
 20 .debug_frame  00000df4  00000000  00000000  000b0b28  2**2
                  CONTENTS, READONLY, DEBUGGING

Disassembly of section .text:

0800d800 <__do_global_dtors_aux>:
 800d800:	b510      	push	{r4, lr}
 800d802:	4c05      	ldr	r4, [pc, #20]	; (800d818 <__do_global_dtors_aux+0x18>)
 800d804:	7823      	ldrb	r3, [r4, #0]
 800d806:	b933      	cbnz	r3, 800d816 <__do_global_dtors_aux+0x16>
 800d808:	4b04      	ldr	r3, [pc, #16]	; (800d81c <__do_global_dtors_aux+0x1c>)
 800d80a:	b113      	cbz	r3, 800d812 <__do_global_dtors_aux+0x12>
 800d80c:	4804      	ldr	r0, [pc, #16]	; (800d820 <__do_global_dtors_aux+0x20>)
 800d80e:	f3af 8000 	nop.w
 800d812:	2301      	movs	r3, #1
 800d814:	7023      	strb	r3, [r4, #0]
 800d816:	bd10      	pop	{r4, pc}
 800d818:	20004040 	.word	0x20004040
 800d81c:	00000000 	.word	0x00000000
 800d820:	0801010c 	.word	0x0801010c

0800d824 <frame_dummy>:
 800d824:	b508      	push	{r3, lr}
 800d826:	4b03      	ldr	r3, [pc, #12]	; (800d834 <frame_dummy+0x10>)
 800d828:	b11b      	cbz	r3, 800d832 <frame_dummy+0xe>
 800d82a:	4903      	ldr	r1, [pc, #12]	; (800d838 <frame_dummy+0x14>)
 800d82c:	4803      	ldr	r0, [pc, #12]	; (800d83c <frame_dummy+0x18>)
 800d82e:	f3af 8000 	nop.w
 800d832:	bd08      	pop	{r3, pc}
 800d834:	00000000 	.word	0x00000000
 800d838:	20004044 	.word	0x20004044
 800d83c:	0801010c 	.word	0x0801010c

0800d840 <strlen>:
 800d840:	4603      	mov	r3, r0
 800d842:	f813 2b01 	ldrb.w	r2, [r3], #1
 800d846:	2a00      	cmp	r2, #0
 800d848:	d1fb      	bne.n	800d842 <strlen+0x2>
 800d84a:	1a18      	subs	r0, r3, r0
 800d84c:	3801      	subs	r0, #1
 800d84e:	4770      	bx	lr

0800d850 <__aeabi_drsub>:
 800d850:	f081 4100 	eor.w	r1, r1, #2147483648	; 0x80000000
 800d854:	e002      	b.n	800d85c <__adddf3>
 800d856:	bf00      	nop

0800d858 <__aeabi_dsub>:
 800d858:	f083 4300 	eor.w	r3, r3, #2147483648	; 0x80000000

0800d85c <__adddf3>:
 800d85c:	b530      	push	{r4, r5, lr}
 800d85e:	ea4f 0441 	mov.w	r4, r1, lsl #1
 800d862:	ea4f 0543 	mov.w	r5, r3, lsl #1
 800d866:	ea94 0f05 	teq	r4, r5
 800d86a:	bf08      	it	eq
 800d86c:	ea90 0f02 	teqeq	r0, r2
 800d870:	bf1f      	itttt	ne
 800d872:	ea54 0c00 	orrsne.w	ip, r4, r0
 800d876:	ea55 0c02 	orrsne.w	ip, r5, r2
 800d87a:	ea7f 5c64 	mvnsne.w	ip, r4, asr #21
 800d87e:	ea7f 5c65 	mvnsne.w	ip, r5, asr #21
 800d882:	f000 80e2 	beq.w	800da4a <__adddf3+0x1ee>
 800d886:	ea4f 5454 	mov.w	r4, r4, lsr #21
 800d88a:	ebd4 5555 	rsbs	r5, r4, r5, lsr #21
 800d88e:	bfb8      	it	lt
 800d890:	426d      	neglt	r5, r5
 800d892:	dd0c      	ble.n	800d8ae <__adddf3+0x52>
 800d894:	442c      	add	r4, r5
 800d896:	ea80 0202 	eor.w	r2, r0, r2
 800d89a:	ea81 0303 	eor.w	r3, r1, r3
 800d89e:	ea82 0000 	eor.w	r0, r2, r0
 800d8a2:	ea83 0101 	eor.w	r1, r3, r1
 800d8a6:	ea80 0202 	eor.w	r2, r0, r2
 800d8aa:	ea81 0303 	eor.w	r3, r1, r3
 800d8ae:	2d36      	cmp	r5, #54	; 0x36
 800d8b0:	bf88      	it	hi
 800d8b2:	bd30      	pophi	{r4, r5, pc}
 800d8b4:	f011 4f00 	tst.w	r1, #2147483648	; 0x80000000
 800d8b8:	ea4f 3101 	mov.w	r1, r1, lsl #12
 800d8bc:	f44f 1c80 	mov.w	ip, #1048576	; 0x100000
 800d8c0:	ea4c 3111 	orr.w	r1, ip, r1, lsr #12
 800d8c4:	d002      	beq.n	800d8cc <__adddf3+0x70>
 800d8c6:	4240      	negs	r0, r0
 800d8c8:	eb61 0141 	sbc.w	r1, r1, r1, lsl #1
 800d8cc:	f013 4f00 	tst.w	r3, #2147483648	; 0x80000000
 800d8d0:	ea4f 3303 	mov.w	r3, r3, lsl #12
 800d8d4:	ea4c 3313 	orr.w	r3, ip, r3, lsr #12
 800d8d8:	d002      	beq.n	800d8e0 <__adddf3+0x84>
 800d8da:	4252      	negs	r2, r2
 800d8dc:	eb63 0343 	sbc.w	r3, r3, r3, lsl #1
 800d8e0:	ea94 0f05 	teq	r4, r5
 800d8e4:	f000 80a7 	beq.w	800da36 <__adddf3+0x1da>
 800d8e8:	f1a4 0401 	sub.w	r4, r4, #1
 800d8ec:	f1d5 0e20 	rsbs	lr, r5, #32
 800d8f0:	db0d      	blt.n	800d90e <__adddf3+0xb2>
 800d8f2:	fa02 fc0e 	lsl.w	ip, r2, lr
 800d8f6:	fa22 f205 	lsr.w	r2, r2, r5
 800d8fa:	1880      	adds	r0, r0, r2
 800d8fc:	f141 0100 	adc.w	r1, r1, #0
 800d900:	fa03 f20e 	lsl.w	r2, r3, lr
 800d904:	1880      	adds	r0, r0, r2
 800d906:	fa43 f305 	asr.w	r3, r3, r5
 800d90a:	4159      	adcs	r1, r3
 800d90c:	e00e      	b.n	800d92c <__adddf3+0xd0>
 800d90e:	f1a5 0520 	sub.w	r5, r5, #32
 800d912:	f10e 0e20 	add.w	lr, lr, #32
 800d916:	2a01      	cmp	r2, #1
 800d918:	fa03 fc0e 	lsl.w	ip, r3, lr
 800d91c:	bf28      	it	cs
 800d91e:	f04c 0c02 	orrcs.w	ip, ip, #2
 800d922:	fa43 f305 	asr.w	r3, r3, r5
 800d926:	18c0      	adds	r0, r0, r3
 800d928:	eb51 71e3 	adcs.w	r1, r1, r3, asr #31
 800d92c:	f001 4500 	and.w	r5, r1, #2147483648	; 0x80000000
 800d930:	d507      	bpl.n	800d942 <__adddf3+0xe6>
 800d932:	f04f 0e00 	mov.w	lr, #0
 800d936:	f1dc 0c00 	rsbs	ip, ip, #0
 800d93a:	eb7e 0000 	sbcs.w	r0, lr, r0
 800d93e:	eb6e 0101 	sbc.w	r1, lr, r1
 800d942:	f5b1 1f80 	cmp.w	r1, #1048576	; 0x100000
 800d946:	d31b      	bcc.n	800d980 <__adddf3+0x124>
 800d948:	f5b1 1f00 	cmp.w	r1, #2097152	; 0x200000
 800d94c:	d30c      	bcc.n	800d968 <__adddf3+0x10c>
 800d94e:	0849      	lsrs	r1, r1, #1
 800d950:	ea5f 0030 	movs.w	r0, r0, rrx
 800d954:	ea4f 0c3c 	mov.w	ip, ip, rrx
 800d958:	f104 0401 	add.w	r4, r4, #1
 800d95c:	ea4f 5244 	mov.w	r2, r4, lsl #21
 800d960:	f512 0f80 	cmn.w	r2, #4194304	; 0x400000
 800d964:	f080 809a 	bcs.w	800da9c <__adddf3+0x240>
 800d968:	f1bc 4f00 	cmp.w	ip, #2147483648	; 0x80000000
 800d96c:	bf08      	it	eq
 800d96e:	ea5f 0c50 	movseq.w	ip, r0, lsr #1
 800d972:	f150 0000 	adcs.w	r0, r0, #0
 800d976:	eb41 5104 	adc.w	r1, r1, r4, lsl #20
 800d97a:	ea41 0105 	orr.w	r1, r1, r5
 800d97e:	bd30      	pop	{r4, r5, pc}
 800d980:	ea5f 0c4c 	movs.w	ip, ip, lsl #1
 800d984:	4140      	adcs	r0, r0
 800d986:	eb41 0101 	adc.w	r1, r1, r1
 800d98a:	f411 1f80 	tst.w	r1, #1048576	; 0x100000
 800d98e:	f1a4 0401 	sub.w	r4, r4, #1
 800d992:	d1e9      	bne.n	800d968 <__adddf3+0x10c>
 800d994:	f091 0f00 	teq	r1, #0
 800d998:	bf04      	itt	eq
 800d99a:	4601      	moveq	r1, r0
 800d99c:	2000      	moveq	r0, #0
 800d99e:	fab1 f381 	clz	r3, r1
 800d9a2:	bf08      	it	eq
 800d9a4:	3320      	addeq	r3, #32
 800d9a6:	f1a3 030b 	sub.w	r3, r3, #11
 800d9aa:	f1b3 0220 	subs.w	r2, r3, #32
 800d9ae:	da0c      	bge.n	800d9ca <__adddf3+0x16e>
 800d9b0:	320c      	adds	r2, #12
 800d9b2:	dd08      	ble.n	800d9c6 <__adddf3+0x16a>
 800d9b4:	f102 0c14 	add.w	ip, r2, #20
 800d9b8:	f1c2 020c 	rsb	r2, r2, #12
 800d9bc:	fa01 f00c 	lsl.w	r0, r1, ip
 800d9c0:	fa21 f102 	lsr.w	r1, r1, r2
 800d9c4:	e00c      	b.n	800d9e0 <__adddf3+0x184>
 800d9c6:	f102 0214 	add.w	r2, r2, #20
 800d9ca:	bfd8      	it	le
 800d9cc:	f1c2 0c20 	rsble	ip, r2, #32
 800d9d0:	fa01 f102 	lsl.w	r1, r1, r2
 800d9d4:	fa20 fc0c 	lsr.w	ip, r0, ip
 800d9d8:	bfdc      	itt	le
 800d9da:	ea41 010c 	orrle.w	r1, r1, ip
 800d9de:	4090      	lslle	r0, r2
 800d9e0:	1ae4      	subs	r4, r4, r3
 800d9e2:	bfa2      	ittt	ge
 800d9e4:	eb01 5104 	addge.w	r1, r1, r4, lsl #20
 800d9e8:	4329      	orrge	r1, r5
 800d9ea:	bd30      	popge	{r4, r5, pc}
 800d9ec:	ea6f 0404 	mvn.w	r4, r4
 800d9f0:	3c1f      	subs	r4, #31
 800d9f2:	da1c      	bge.n	800da2e <__adddf3+0x1d2>
 800d9f4:	340c      	adds	r4, #12
 800d9f6:	dc0e      	bgt.n	800da16 <__adddf3+0x1ba>
 800d9f8:	f104 0414 	add.w	r4, r4, #20
 800d9fc:	f1c4 0220 	rsb	r2, r4, #32
 800da00:	fa20 f004 	lsr.w	r0, r0, r4
 800da04:	fa01 f302 	lsl.w	r3, r1, r2
 800da08:	ea40 0003 	orr.w	r0, r0, r3
 800da0c:	fa21 f304 	lsr.w	r3, r1, r4
 800da10:	ea45 0103 	orr.w	r1, r5, r3
 800da14:	bd30      	pop	{r4, r5, pc}
 800da16:	f1c4 040c 	rsb	r4, r4, #12
 800da1a:	f1c4 0220 	rsb	r2, r4, #32
 800da1e:	fa20 f002 	lsr.w	r0, r0, r2
 800da22:	fa01 f304 	lsl.w	r3, r1, r4
 800da26:	ea40 0003 	orr.w	r0, r0, r3
 800da2a:	4629      	mov	r1, r5
 800da2c:	bd30      	pop	{r4, r5, pc}
 800da2e:	fa21 f004 	lsr.w	r0, r1, r4
 800da32:	4629      	mov	r1, r5
 800da34:	bd30      	pop	{r4, r5, pc}
 800da36:	f094 0f00 	teq	r4, #0
 800da3a:	f483 1380 	eor.w	r3, r3, #1048576	; 0x100000
 800da3e:	bf06      	itte	eq
 800da40:	f481 1180 	eoreq.w	r1, r1, #1048576	; 0x100000
 800da44:	3401      	addeq	r4, #1
 800da46:	3d01      	subne	r5, #1
 800da48:	e74e      	b.n	800d8e8 <__adddf3+0x8c>
 800da4a:	ea7f 5c64 	mvns.w	ip, r4, asr #21
 800da4e:	bf18      	it	ne
 800da50:	ea7f 5c65 	mvnsne.w	ip, r5, asr #21
 800da54:	d029      	beq.n	800daaa <__adddf3+0x24e>
 800da56:	ea94 0f05 	teq	r4, r5
 800da5a:	bf08      	it	eq
 800da5c:	ea90 0f02 	teqeq	r0, r2
 800da60:	d005      	beq.n	800da6e <__adddf3+0x212>
 800da62:	ea54 0c00 	orrs.w	ip, r4, r0
 800da66:	bf04      	itt	eq
 800da68:	4619      	moveq	r1, r3
 800da6a:	4610      	moveq	r0, r2
 800da6c:	bd30      	pop	{r4, r5, pc}
 800da6e:	ea91 0f03 	teq	r1, r3
 800da72:	bf1e      	ittt	ne
 800da74:	2100      	movne	r1, #0
 800da76:	2000      	movne	r0, #0
 800da78:	bd30      	popne	{r4, r5, pc}
 800da7a:	ea5f 5c54 	movs.w	ip, r4, lsr #21
 800da7e:	d105      	bne.n	800da8c <__adddf3+0x230>
 800da80:	0040      	lsls	r0, r0, #1
 800da82:	4149      	adcs	r1, r1
 800da84:	bf28      	it	cs
 800da86:	f041 4100 	orrcs.w	r1, r1, #2147483648	; 0x80000000
 800da8a:	bd30      	pop	{r4, r5, pc}
 800da8c:	f514 0480 	adds.w	r4, r4, #4194304	; 0x400000
 800da90:	bf3c      	itt	cc
 800da92:	f501 1180 	addcc.w	r1, r1, #1048576	; 0x100000
 800da96:	bd30      	popcc	{r4, r5, pc}
 800da98:	f001 4500 	and.w	r5, r1, #2147483648	; 0x80000000
 800da9c:	f045 41fe 	orr.w	r1, r5, #2130706432	; 0x7f000000
 800daa0:	f441 0170 	orr.w	r1, r1, #15728640	; 0xf00000
 800daa4:	f04f 0000 	mov.w	r0, #0
 800daa8:	bd30      	pop	{r4, r5, pc}
 800daaa:	ea7f 5c64 	mvns.w	ip, r4, asr #21
 800daae:	bf1a      	itte	ne
 800dab0:	4619      	movne	r1, r3
 800dab2:	4610      	movne	r0, r2
 800dab4:	ea7f 5c65 	mvnseq.w	ip, r5, asr #21
 800dab8:	bf1c      	itt	ne
 800daba:	460b      	movne	r3, r1
 800dabc:	4602      	movne	r2, r0
 800dabe:	ea50 3401 	orrs.w	r4, r0, r1, lsl #12
 800dac2:	bf06      	itte	eq
 800dac4:	ea52 3503 	orrseq.w	r5, r2, r3, lsl #12
 800dac8:	ea91 0f03 	teqeq	r1, r3
 800dacc:	f441 2100 	orrne.w	r1, r1, #524288	; 0x80000
 800dad0:	bd30      	pop	{r4, r5, pc}
 800dad2:	bf00      	nop

0800dad4 <__aeabi_ui2d>:
 800dad4:	f090 0f00 	teq	r0, #0
 800dad8:	bf04      	itt	eq
 800dada:	2100      	moveq	r1, #0
 800dadc:	4770      	bxeq	lr
 800dade:	b530      	push	{r4, r5, lr}
 800dae0:	f44f 6480 	mov.w	r4, #1024	; 0x400
 800dae4:	f104 0432 	add.w	r4, r4, #50	; 0x32
 800dae8:	f04f 0500 	mov.w	r5, #0
 800daec:	f04f 0100 	mov.w	r1, #0
 800daf0:	e750      	b.n	800d994 <__adddf3+0x138>
 800daf2:	bf00      	nop

0800daf4 <__aeabi_i2d>:
 800daf4:	f090 0f00 	teq	r0, #0
 800daf8:	bf04      	itt	eq
 800dafa:	2100      	moveq	r1, #0
 800dafc:	4770      	bxeq	lr
 800dafe:	b530      	push	{r4, r5, lr}
 800db00:	f44f 6480 	mov.w	r4, #1024	; 0x400
 800db04:	f104 0432 	add.w	r4, r4, #50	; 0x32
 800db08:	f010 4500 	ands.w	r5, r0, #2147483648	; 0x80000000
 800db0c:	bf48      	it	mi
 800db0e:	4240      	negmi	r0, r0
 800db10:	f04f 0100 	mov.w	r1, #0
 800db14:	e73e      	b.n	800d994 <__adddf3+0x138>
 800db16:	bf00      	nop

0800db18 <__aeabi_f2d>:
 800db18:	0042      	lsls	r2, r0, #1
 800db1a:	ea4f 01e2 	mov.w	r1, r2, asr #3
 800db1e:	ea4f 0131 	mov.w	r1, r1, rrx
 800db22:	ea4f 7002 	mov.w	r0, r2, lsl #28
 800db26:	bf1f      	itttt	ne
 800db28:	f012 437f 	andsne.w	r3, r2, #4278190080	; 0xff000000
 800db2c:	f093 4f7f 	teqne	r3, #4278190080	; 0xff000000
 800db30:	f081 5160 	eorne.w	r1, r1, #939524096	; 0x38000000
 800db34:	4770      	bxne	lr
 800db36:	f032 427f 	bics.w	r2, r2, #4278190080	; 0xff000000
 800db3a:	bf08      	it	eq
 800db3c:	4770      	bxeq	lr
 800db3e:	f093 4f7f 	teq	r3, #4278190080	; 0xff000000
 800db42:	bf04      	itt	eq
 800db44:	f441 2100 	orreq.w	r1, r1, #524288	; 0x80000
 800db48:	4770      	bxeq	lr
 800db4a:	b530      	push	{r4, r5, lr}
 800db4c:	f44f 7460 	mov.w	r4, #896	; 0x380
 800db50:	f001 4500 	and.w	r5, r1, #2147483648	; 0x80000000
 800db54:	f021 4100 	bic.w	r1, r1, #2147483648	; 0x80000000
 800db58:	e71c      	b.n	800d994 <__adddf3+0x138>
 800db5a:	bf00      	nop

0800db5c <__aeabi_ul2d>:
 800db5c:	ea50 0201 	orrs.w	r2, r0, r1
 800db60:	bf08      	it	eq
 800db62:	4770      	bxeq	lr
 800db64:	b530      	push	{r4, r5, lr}
 800db66:	f04f 0500 	mov.w	r5, #0
 800db6a:	e00a      	b.n	800db82 <__aeabi_l2d+0x16>

0800db6c <__aeabi_l2d>:
 800db6c:	ea50 0201 	orrs.w	r2, r0, r1
 800db70:	bf08      	it	eq
 800db72:	4770      	bxeq	lr
 800db74:	b530      	push	{r4, r5, lr}
 800db76:	f011 4500 	ands.w	r5, r1, #2147483648	; 0x80000000
 800db7a:	d502      	bpl.n	800db82 <__aeabi_l2d+0x16>
 800db7c:	4240      	negs	r0, r0
 800db7e:	eb61 0141 	sbc.w	r1, r1, r1, lsl #1
 800db82:	f44f 6480 	mov.w	r4, #1024	; 0x400
 800db86:	f104 0432 	add.w	r4, r4, #50	; 0x32
 800db8a:	ea5f 5c91 	movs.w	ip, r1, lsr #22
 800db8e:	f43f aed8 	beq.w	800d942 <__adddf3+0xe6>
 800db92:	f04f 0203 	mov.w	r2, #3
 800db96:	ea5f 0cdc 	movs.w	ip, ip, lsr #3
 800db9a:	bf18      	it	ne
 800db9c:	3203      	addne	r2, #3
 800db9e:	ea5f 0cdc 	movs.w	ip, ip, lsr #3
 800dba2:	bf18      	it	ne
 800dba4:	3203      	addne	r2, #3
 800dba6:	eb02 02dc 	add.w	r2, r2, ip, lsr #3
 800dbaa:	f1c2 0320 	rsb	r3, r2, #32
 800dbae:	fa00 fc03 	lsl.w	ip, r0, r3
 800dbb2:	fa20 f002 	lsr.w	r0, r0, r2
 800dbb6:	fa01 fe03 	lsl.w	lr, r1, r3
 800dbba:	ea40 000e 	orr.w	r0, r0, lr
 800dbbe:	fa21 f102 	lsr.w	r1, r1, r2
 800dbc2:	4414      	add	r4, r2
 800dbc4:	e6bd      	b.n	800d942 <__adddf3+0xe6>
 800dbc6:	bf00      	nop

0800dbc8 <__aeabi_dmul>:
 800dbc8:	b570      	push	{r4, r5, r6, lr}
 800dbca:	f04f 0cff 	mov.w	ip, #255	; 0xff
 800dbce:	f44c 6ce0 	orr.w	ip, ip, #1792	; 0x700
 800dbd2:	ea1c 5411 	ands.w	r4, ip, r1, lsr #20
 800dbd6:	bf1d      	ittte	ne
 800dbd8:	ea1c 5513 	andsne.w	r5, ip, r3, lsr #20
 800dbdc:	ea94 0f0c 	teqne	r4, ip
 800dbe0:	ea95 0f0c 	teqne	r5, ip
 800dbe4:	f000 f8de 	bleq	800dda4 <__aeabi_dmul+0x1dc>
 800dbe8:	442c      	add	r4, r5
 800dbea:	ea81 0603 	eor.w	r6, r1, r3
 800dbee:	ea21 514c 	bic.w	r1, r1, ip, lsl #21
 800dbf2:	ea23 534c 	bic.w	r3, r3, ip, lsl #21
 800dbf6:	ea50 3501 	orrs.w	r5, r0, r1, lsl #12
 800dbfa:	bf18      	it	ne
 800dbfc:	ea52 3503 	orrsne.w	r5, r2, r3, lsl #12
 800dc00:	f441 1180 	orr.w	r1, r1, #1048576	; 0x100000
 800dc04:	f443 1380 	orr.w	r3, r3, #1048576	; 0x100000
 800dc08:	d038      	beq.n	800dc7c <__aeabi_dmul+0xb4>
 800dc0a:	fba0 ce02 	umull	ip, lr, r0, r2
 800dc0e:	f04f 0500 	mov.w	r5, #0
 800dc12:	fbe1 e502 	umlal	lr, r5, r1, r2
 800dc16:	f006 4200 	and.w	r2, r6, #2147483648	; 0x80000000
 800dc1a:	fbe0 e503 	umlal	lr, r5, r0, r3
 800dc1e:	f04f 0600 	mov.w	r6, #0
 800dc22:	fbe1 5603 	umlal	r5, r6, r1, r3
 800dc26:	f09c 0f00 	teq	ip, #0
 800dc2a:	bf18      	it	ne
 800dc2c:	f04e 0e01 	orrne.w	lr, lr, #1
 800dc30:	f1a4 04ff 	sub.w	r4, r4, #255	; 0xff
 800dc34:	f5b6 7f00 	cmp.w	r6, #512	; 0x200
 800dc38:	f564 7440 	sbc.w	r4, r4, #768	; 0x300
 800dc3c:	d204      	bcs.n	800dc48 <__aeabi_dmul+0x80>
 800dc3e:	ea5f 0e4e 	movs.w	lr, lr, lsl #1
 800dc42:	416d      	adcs	r5, r5
 800dc44:	eb46 0606 	adc.w	r6, r6, r6
 800dc48:	ea42 21c6 	orr.w	r1, r2, r6, lsl #11
 800dc4c:	ea41 5155 	orr.w	r1, r1, r5, lsr #21
 800dc50:	ea4f 20c5 	mov.w	r0, r5, lsl #11
 800dc54:	ea40 505e 	orr.w	r0, r0, lr, lsr #21
 800dc58:	ea4f 2ece 	mov.w	lr, lr, lsl #11
 800dc5c:	f1b4 0cfd 	subs.w	ip, r4, #253	; 0xfd
 800dc60:	bf88      	it	hi
 800dc62:	f5bc 6fe0 	cmphi.w	ip, #1792	; 0x700
 800dc66:	d81e      	bhi.n	800dca6 <__aeabi_dmul+0xde>
 800dc68:	f1be 4f00 	cmp.w	lr, #2147483648	; 0x80000000
 800dc6c:	bf08      	it	eq
 800dc6e:	ea5f 0e50 	movseq.w	lr, r0, lsr #1
 800dc72:	f150 0000 	adcs.w	r0, r0, #0
 800dc76:	eb41 5104 	adc.w	r1, r1, r4, lsl #20
 800dc7a:	bd70      	pop	{r4, r5, r6, pc}
 800dc7c:	f006 4600 	and.w	r6, r6, #2147483648	; 0x80000000
 800dc80:	ea46 0101 	orr.w	r1, r6, r1
 800dc84:	ea40 0002 	orr.w	r0, r0, r2
 800dc88:	ea81 0103 	eor.w	r1, r1, r3
 800dc8c:	ebb4 045c 	subs.w	r4, r4, ip, lsr #1
 800dc90:	bfc2      	ittt	gt
 800dc92:	ebd4 050c 	rsbsgt	r5, r4, ip
 800dc96:	ea41 5104 	orrgt.w	r1, r1, r4, lsl #20
 800dc9a:	bd70      	popgt	{r4, r5, r6, pc}
 800dc9c:	f441 1180 	orr.w	r1, r1, #1048576	; 0x100000
 800dca0:	f04f 0e00 	mov.w	lr, #0
 800dca4:	3c01      	subs	r4, #1
 800dca6:	f300 80ab 	bgt.w	800de00 <__aeabi_dmul+0x238>
 800dcaa:	f114 0f36 	cmn.w	r4, #54	; 0x36
 800dcae:	bfde      	ittt	le
 800dcb0:	2000      	movle	r0, #0
 800dcb2:	f001 4100 	andle.w	r1, r1, #2147483648	; 0x80000000
 800dcb6:	bd70      	pople	{r4, r5, r6, pc}
 800dcb8:	f1c4 0400 	rsb	r4, r4, #0
 800dcbc:	3c20      	subs	r4, #32
 800dcbe:	da35      	bge.n	800dd2c <__aeabi_dmul+0x164>
 800dcc0:	340c      	adds	r4, #12
 800dcc2:	dc1b      	bgt.n	800dcfc <__aeabi_dmul+0x134>
 800dcc4:	f104 0414 	add.w	r4, r4, #20
 800dcc8:	f1c4 0520 	rsb	r5, r4, #32
 800dccc:	fa00 f305 	lsl.w	r3, r0, r5
 800dcd0:	fa20 f004 	lsr.w	r0, r0, r4
 800dcd4:	fa01 f205 	lsl.w	r2, r1, r5
 800dcd8:	ea40 0002 	orr.w	r0, r0, r2
 800dcdc:	f001 4200 	and.w	r2, r1, #2147483648	; 0x80000000
 800dce0:	f021 4100 	bic.w	r1, r1, #2147483648	; 0x80000000
 800dce4:	eb10 70d3 	adds.w	r0, r0, r3, lsr #31
 800dce8:	fa21 f604 	lsr.w	r6, r1, r4
 800dcec:	eb42 0106 	adc.w	r1, r2, r6
 800dcf0:	ea5e 0e43 	orrs.w	lr, lr, r3, lsl #1
 800dcf4:	bf08      	it	eq
 800dcf6:	ea20 70d3 	biceq.w	r0, r0, r3, lsr #31
 800dcfa:	bd70      	pop	{r4, r5, r6, pc}
 800dcfc:	f1c4 040c 	rsb	r4, r4, #12
 800dd00:	f1c4 0520 	rsb	r5, r4, #32
 800dd04:	fa00 f304 	lsl.w	r3, r0, r4
 800dd08:	fa20 f005 	lsr.w	r0, r0, r5
 800dd0c:	fa01 f204 	lsl.w	r2, r1, r4
 800dd10:	ea40 0002 	orr.w	r0, r0, r2
 800dd14:	f001 4100 	and.w	r1, r1, #2147483648	; 0x80000000
 800dd18:	eb10 70d3 	adds.w	r0, r0, r3, lsr #31
 800dd1c:	f141 0100 	adc.w	r1, r1, #0
 800dd20:	ea5e 0e43 	orrs.w	lr, lr, r3, lsl #1
 800dd24:	bf08      	it	eq
 800dd26:	ea20 70d3 	biceq.w	r0, r0, r3, lsr #31
 800dd2a:	bd70      	pop	{r4, r5, r6, pc}
 800dd2c:	f1c4 0520 	rsb	r5, r4, #32
 800dd30:	fa00 f205 	lsl.w	r2, r0, r5
 800dd34:	ea4e 0e02 	orr.w	lr, lr, r2
 800dd38:	fa20 f304 	lsr.w	r3, r0, r4
 800dd3c:	fa01 f205 	lsl.w	r2, r1, r5
 800dd40:	ea43 0302 	orr.w	r3, r3, r2
 800dd44:	fa21 f004 	lsr.w	r0, r1, r4
 800dd48:	f001 4100 	and.w	r1, r1, #2147483648	; 0x80000000
 800dd4c:	fa21 f204 	lsr.w	r2, r1, r4
 800dd50:	ea20 0002 	bic.w	r0, r0, r2
 800dd54:	eb00 70d3 	add.w	r0, r0, r3, lsr #31
 800dd58:	ea5e 0e43 	orrs.w	lr, lr, r3, lsl #1
 800dd5c:	bf08      	it	eq
 800dd5e:	ea20 70d3 	biceq.w	r0, r0, r3, lsr #31
 800dd62:	bd70      	pop	{r4, r5, r6, pc}
 800dd64:	f094 0f00 	teq	r4, #0
 800dd68:	d10f      	bne.n	800dd8a <__aeabi_dmul+0x1c2>
 800dd6a:	f001 4600 	and.w	r6, r1, #2147483648	; 0x80000000
 800dd6e:	0040      	lsls	r0, r0, #1
 800dd70:	eb41 0101 	adc.w	r1, r1, r1
 800dd74:	f411 1f80 	tst.w	r1, #1048576	; 0x100000
 800dd78:	bf08      	it	eq
 800dd7a:	3c01      	subeq	r4, #1
 800dd7c:	d0f7      	beq.n	800dd6e <__aeabi_dmul+0x1a6>
 800dd7e:	ea41 0106 	orr.w	r1, r1, r6
 800dd82:	f095 0f00 	teq	r5, #0
 800dd86:	bf18      	it	ne
 800dd88:	4770      	bxne	lr
 800dd8a:	f003 4600 	and.w	r6, r3, #2147483648	; 0x80000000
 800dd8e:	0052      	lsls	r2, r2, #1
 800dd90:	eb43 0303 	adc.w	r3, r3, r3
 800dd94:	f413 1f80 	tst.w	r3, #1048576	; 0x100000
 800dd98:	bf08      	it	eq
 800dd9a:	3d01      	subeq	r5, #1
 800dd9c:	d0f7      	beq.n	800dd8e <__aeabi_dmul+0x1c6>
 800dd9e:	ea43 0306 	orr.w	r3, r3, r6
 800dda2:	4770      	bx	lr
 800dda4:	ea94 0f0c 	teq	r4, ip
 800dda8:	ea0c 5513 	and.w	r5, ip, r3, lsr #20
 800ddac:	bf18      	it	ne
 800ddae:	ea95 0f0c 	teqne	r5, ip
 800ddb2:	d00c      	beq.n	800ddce <__aeabi_dmul+0x206>
 800ddb4:	ea50 0641 	orrs.w	r6, r0, r1, lsl #1
 800ddb8:	bf18      	it	ne
 800ddba:	ea52 0643 	orrsne.w	r6, r2, r3, lsl #1
 800ddbe:	d1d1      	bne.n	800dd64 <__aeabi_dmul+0x19c>
 800ddc0:	ea81 0103 	eor.w	r1, r1, r3
 800ddc4:	f001 4100 	and.w	r1, r1, #2147483648	; 0x80000000
 800ddc8:	f04f 0000 	mov.w	r0, #0
 800ddcc:	bd70      	pop	{r4, r5, r6, pc}
 800ddce:	ea50 0641 	orrs.w	r6, r0, r1, lsl #1
 800ddd2:	bf06      	itte	eq
 800ddd4:	4610      	moveq	r0, r2
 800ddd6:	4619      	moveq	r1, r3
 800ddd8:	ea52 0643 	orrsne.w	r6, r2, r3, lsl #1
 800dddc:	d019      	beq.n	800de12 <__aeabi_dmul+0x24a>
 800ddde:	ea94 0f0c 	teq	r4, ip
 800dde2:	d102      	bne.n	800ddea <__aeabi_dmul+0x222>
 800dde4:	ea50 3601 	orrs.w	r6, r0, r1, lsl #12
 800dde8:	d113      	bne.n	800de12 <__aeabi_dmul+0x24a>
 800ddea:	ea95 0f0c 	teq	r5, ip
 800ddee:	d105      	bne.n	800ddfc <__aeabi_dmul+0x234>
 800ddf0:	ea52 3603 	orrs.w	r6, r2, r3, lsl #12
 800ddf4:	bf1c      	itt	ne
 800ddf6:	4610      	movne	r0, r2
 800ddf8:	4619      	movne	r1, r3
 800ddfa:	d10a      	bne.n	800de12 <__aeabi_dmul+0x24a>
 800ddfc:	ea81 0103 	eor.w	r1, r1, r3
 800de00:	f001 4100 	and.w	r1, r1, #2147483648	; 0x80000000
 800de04:	f041 41fe 	orr.w	r1, r1, #2130706432	; 0x7f000000
 800de08:	f441 0170 	orr.w	r1, r1, #15728640	; 0xf00000
 800de0c:	f04f 0000 	mov.w	r0, #0
 800de10:	bd70      	pop	{r4, r5, r6, pc}
 800de12:	f041 41fe 	orr.w	r1, r1, #2130706432	; 0x7f000000
 800de16:	f441 0178 	orr.w	r1, r1, #16252928	; 0xf80000
 800de1a:	bd70      	pop	{r4, r5, r6, pc}

0800de1c <__aeabi_ddiv>:
 800de1c:	b570      	push	{r4, r5, r6, lr}
 800de1e:	f04f 0cff 	mov.w	ip, #255	; 0xff
 800de22:	f44c 6ce0 	orr.w	ip, ip, #1792	; 0x700
 800de26:	ea1c 5411 	ands.w	r4, ip, r1, lsr #20
 800de2a:	bf1d      	ittte	ne
 800de2c:	ea1c 5513 	andsne.w	r5, ip, r3, lsr #20
 800de30:	ea94 0f0c 	teqne	r4, ip
 800de34:	ea95 0f0c 	teqne	r5, ip
 800de38:	f000 f8a7 	bleq	800df8a <__aeabi_ddiv+0x16e>
 800de3c:	eba4 0405 	sub.w	r4, r4, r5
 800de40:	ea81 0e03 	eor.w	lr, r1, r3
 800de44:	ea52 3503 	orrs.w	r5, r2, r3, lsl #12
 800de48:	ea4f 3101 	mov.w	r1, r1, lsl #12
 800de4c:	f000 8088 	beq.w	800df60 <__aeabi_ddiv+0x144>
 800de50:	ea4f 3303 	mov.w	r3, r3, lsl #12
 800de54:	f04f 5580 	mov.w	r5, #268435456	; 0x10000000
 800de58:	ea45 1313 	orr.w	r3, r5, r3, lsr #4
 800de5c:	ea43 6312 	orr.w	r3, r3, r2, lsr #24
 800de60:	ea4f 2202 	mov.w	r2, r2, lsl #8
 800de64:	ea45 1511 	orr.w	r5, r5, r1, lsr #4
 800de68:	ea45 6510 	orr.w	r5, r5, r0, lsr #24
 800de6c:	ea4f 2600 	mov.w	r6, r0, lsl #8
 800de70:	f00e 4100 	and.w	r1, lr, #2147483648	; 0x80000000
 800de74:	429d      	cmp	r5, r3
 800de76:	bf08      	it	eq
 800de78:	4296      	cmpeq	r6, r2
 800de7a:	f144 04fd 	adc.w	r4, r4, #253	; 0xfd
 800de7e:	f504 7440 	add.w	r4, r4, #768	; 0x300
 800de82:	d202      	bcs.n	800de8a <__aeabi_ddiv+0x6e>
 800de84:	085b      	lsrs	r3, r3, #1
 800de86:	ea4f 0232 	mov.w	r2, r2, rrx
 800de8a:	1ab6      	subs	r6, r6, r2
 800de8c:	eb65 0503 	sbc.w	r5, r5, r3
 800de90:	085b      	lsrs	r3, r3, #1
 800de92:	ea4f 0232 	mov.w	r2, r2, rrx
 800de96:	f44f 1080 	mov.w	r0, #1048576	; 0x100000
 800de9a:	f44f 2c00 	mov.w	ip, #524288	; 0x80000
 800de9e:	ebb6 0e02 	subs.w	lr, r6, r2
 800dea2:	eb75 0e03 	sbcs.w	lr, r5, r3
 800dea6:	bf22      	ittt	cs
 800dea8:	1ab6      	subcs	r6, r6, r2
 800deaa:	4675      	movcs	r5, lr
 800deac:	ea40 000c 	orrcs.w	r0, r0, ip
 800deb0:	085b      	lsrs	r3, r3, #1
 800deb2:	ea4f 0232 	mov.w	r2, r2, rrx
 800deb6:	ebb6 0e02 	subs.w	lr, r6, r2
 800deba:	eb75 0e03 	sbcs.w	lr, r5, r3
 800debe:	bf22      	ittt	cs
 800dec0:	1ab6      	subcs	r6, r6, r2
 800dec2:	4675      	movcs	r5, lr
 800dec4:	ea40 005c 	orrcs.w	r0, r0, ip, lsr #1
 800dec8:	085b      	lsrs	r3, r3, #1
 800deca:	ea4f 0232 	mov.w	r2, r2, rrx
 800dece:	ebb6 0e02 	subs.w	lr, r6, r2
 800ded2:	eb75 0e03 	sbcs.w	lr, r5, r3
 800ded6:	bf22      	ittt	cs
 800ded8:	1ab6      	subcs	r6, r6, r2
 800deda:	4675      	movcs	r5, lr
 800dedc:	ea40 009c 	orrcs.w	r0, r0, ip, lsr #2
 800dee0:	085b      	lsrs	r3, r3, #1
 800dee2:	ea4f 0232 	mov.w	r2, r2, rrx
 800dee6:	ebb6 0e02 	subs.w	lr, r6, r2
 800deea:	eb75 0e03 	sbcs.w	lr, r5, r3
 800deee:	bf22      	ittt	cs
 800def0:	1ab6      	subcs	r6, r6, r2
 800def2:	4675      	movcs	r5, lr
 800def4:	ea40 00dc 	orrcs.w	r0, r0, ip, lsr #3
 800def8:	ea55 0e06 	orrs.w	lr, r5, r6
 800defc:	d018      	beq.n	800df30 <__aeabi_ddiv+0x114>
 800defe:	ea4f 1505 	mov.w	r5, r5, lsl #4
 800df02:	ea45 7516 	orr.w	r5, r5, r6, lsr #28
 800df06:	ea4f 1606 	mov.w	r6, r6, lsl #4
 800df0a:	ea4f 03c3 	mov.w	r3, r3, lsl #3
 800df0e:	ea43 7352 	orr.w	r3, r3, r2, lsr #29
 800df12:	ea4f 02c2 	mov.w	r2, r2, lsl #3
 800df16:	ea5f 1c1c 	movs.w	ip, ip, lsr #4
 800df1a:	d1c0      	bne.n	800de9e <__aeabi_ddiv+0x82>
 800df1c:	f411 1f80 	tst.w	r1, #1048576	; 0x100000
 800df20:	d10b      	bne.n	800df3a <__aeabi_ddiv+0x11e>
 800df22:	ea41 0100 	orr.w	r1, r1, r0
 800df26:	f04f 0000 	mov.w	r0, #0
 800df2a:	f04f 4c00 	mov.w	ip, #2147483648	; 0x80000000
 800df2e:	e7b6      	b.n	800de9e <__aeabi_ddiv+0x82>
 800df30:	f411 1f80 	tst.w	r1, #1048576	; 0x100000
 800df34:	bf04      	itt	eq
 800df36:	4301      	orreq	r1, r0
 800df38:	2000      	moveq	r0, #0
 800df3a:	f1b4 0cfd 	subs.w	ip, r4, #253	; 0xfd
 800df3e:	bf88      	it	hi
 800df40:	f5bc 6fe0 	cmphi.w	ip, #1792	; 0x700
 800df44:	f63f aeaf 	bhi.w	800dca6 <__aeabi_dmul+0xde>
 800df48:	ebb5 0c03 	subs.w	ip, r5, r3
 800df4c:	bf04      	itt	eq
 800df4e:	ebb6 0c02 	subseq.w	ip, r6, r2
 800df52:	ea5f 0c50 	movseq.w	ip, r0, lsr #1
 800df56:	f150 0000 	adcs.w	r0, r0, #0
 800df5a:	eb41 5104 	adc.w	r1, r1, r4, lsl #20
 800df5e:	bd70      	pop	{r4, r5, r6, pc}
 800df60:	f00e 4e00 	and.w	lr, lr, #2147483648	; 0x80000000
 800df64:	ea4e 3111 	orr.w	r1, lr, r1, lsr #12
 800df68:	eb14 045c 	adds.w	r4, r4, ip, lsr #1
 800df6c:	bfc2      	ittt	gt
 800df6e:	ebd4 050c 	rsbsgt	r5, r4, ip
 800df72:	ea41 5104 	orrgt.w	r1, r1, r4, lsl #20
 800df76:	bd70      	popgt	{r4, r5, r6, pc}
 800df78:	f441 1180 	orr.w	r1, r1, #1048576	; 0x100000
 800df7c:	f04f 0e00 	mov.w	lr, #0
 800df80:	3c01      	subs	r4, #1
 800df82:	e690      	b.n	800dca6 <__aeabi_dmul+0xde>
 800df84:	ea45 0e06 	orr.w	lr, r5, r6
 800df88:	e68d      	b.n	800dca6 <__aeabi_dmul+0xde>
 800df8a:	ea0c 5513 	and.w	r5, ip, r3, lsr #20
 800df8e:	ea94 0f0c 	teq	r4, ip
 800df92:	bf08      	it	eq
 800df94:	ea95 0f0c 	teqeq	r5, ip
 800df98:	f43f af3b 	beq.w	800de12 <__aeabi_dmul+0x24a>
 800df9c:	ea94 0f0c 	teq	r4, ip
 800dfa0:	d10a      	bne.n	800dfb8 <__aeabi_ddiv+0x19c>
 800dfa2:	ea50 3401 	orrs.w	r4, r0, r1, lsl #12
 800dfa6:	f47f af34 	bne.w	800de12 <__aeabi_dmul+0x24a>
 800dfaa:	ea95 0f0c 	teq	r5, ip
 800dfae:	f47f af25 	bne.w	800ddfc <__aeabi_dmul+0x234>
 800dfb2:	4610      	mov	r0, r2
 800dfb4:	4619      	mov	r1, r3
 800dfb6:	e72c      	b.n	800de12 <__aeabi_dmul+0x24a>
 800dfb8:	ea95 0f0c 	teq	r5, ip
 800dfbc:	d106      	bne.n	800dfcc <__aeabi_ddiv+0x1b0>
 800dfbe:	ea52 3503 	orrs.w	r5, r2, r3, lsl #12
 800dfc2:	f43f aefd 	beq.w	800ddc0 <__aeabi_dmul+0x1f8>
 800dfc6:	4610      	mov	r0, r2
 800dfc8:	4619      	mov	r1, r3
 800dfca:	e722      	b.n	800de12 <__aeabi_dmul+0x24a>
 800dfcc:	ea50 0641 	orrs.w	r6, r0, r1, lsl #1
 800dfd0:	bf18      	it	ne
 800dfd2:	ea52 0643 	orrsne.w	r6, r2, r3, lsl #1
 800dfd6:	f47f aec5 	bne.w	800dd64 <__aeabi_dmul+0x19c>
 800dfda:	ea50 0441 	orrs.w	r4, r0, r1, lsl #1
 800dfde:	f47f af0d 	bne.w	800ddfc <__aeabi_dmul+0x234>
 800dfe2:	ea52 0543 	orrs.w	r5, r2, r3, lsl #1
 800dfe6:	f47f aeeb 	bne.w	800ddc0 <__aeabi_dmul+0x1f8>
 800dfea:	e712      	b.n	800de12 <__aeabi_dmul+0x24a>

0800dfec <__gedf2>:
 800dfec:	f04f 3cff 	mov.w	ip, #4294967295
 800dff0:	e006      	b.n	800e000 <__cmpdf2+0x4>
 800dff2:	bf00      	nop

0800dff4 <__ledf2>:
 800dff4:	f04f 0c01 	mov.w	ip, #1
 800dff8:	e002      	b.n	800e000 <__cmpdf2+0x4>
 800dffa:	bf00      	nop

0800dffc <__cmpdf2>:
 800dffc:	f04f 0c01 	mov.w	ip, #1
 800e000:	f84d cd04 	str.w	ip, [sp, #-4]!
 800e004:	ea4f 0c41 	mov.w	ip, r1, lsl #1
 800e008:	ea7f 5c6c 	mvns.w	ip, ip, asr #21
 800e00c:	ea4f 0c43 	mov.w	ip, r3, lsl #1
 800e010:	bf18      	it	ne
 800e012:	ea7f 5c6c 	mvnsne.w	ip, ip, asr #21
 800e016:	d01b      	beq.n	800e050 <__cmpdf2+0x54>
 800e018:	b001      	add	sp, #4
 800e01a:	ea50 0c41 	orrs.w	ip, r0, r1, lsl #1
 800e01e:	bf0c      	ite	eq
 800e020:	ea52 0c43 	orrseq.w	ip, r2, r3, lsl #1
 800e024:	ea91 0f03 	teqne	r1, r3
 800e028:	bf02      	ittt	eq
 800e02a:	ea90 0f02 	teqeq	r0, r2
 800e02e:	2000      	moveq	r0, #0
 800e030:	4770      	bxeq	lr
 800e032:	f110 0f00 	cmn.w	r0, #0
 800e036:	ea91 0f03 	teq	r1, r3
 800e03a:	bf58      	it	pl
 800e03c:	4299      	cmppl	r1, r3
 800e03e:	bf08      	it	eq
 800e040:	4290      	cmpeq	r0, r2
 800e042:	bf2c      	ite	cs
 800e044:	17d8      	asrcs	r0, r3, #31
 800e046:	ea6f 70e3 	mvncc.w	r0, r3, asr #31
 800e04a:	f040 0001 	orr.w	r0, r0, #1
 800e04e:	4770      	bx	lr
 800e050:	ea4f 0c41 	mov.w	ip, r1, lsl #1
 800e054:	ea7f 5c6c 	mvns.w	ip, ip, asr #21
 800e058:	d102      	bne.n	800e060 <__cmpdf2+0x64>
 800e05a:	ea50 3c01 	orrs.w	ip, r0, r1, lsl #12
 800e05e:	d107      	bne.n	800e070 <__cmpdf2+0x74>
 800e060:	ea4f 0c43 	mov.w	ip, r3, lsl #1
 800e064:	ea7f 5c6c 	mvns.w	ip, ip, asr #21
 800e068:	d1d6      	bne.n	800e018 <__cmpdf2+0x1c>
 800e06a:	ea52 3c03 	orrs.w	ip, r2, r3, lsl #12
 800e06e:	d0d3      	beq.n	800e018 <__cmpdf2+0x1c>
 800e070:	f85d 0b04 	ldr.w	r0, [sp], #4
 800e074:	4770      	bx	lr
 800e076:	bf00      	nop

0800e078 <__aeabi_cdrcmple>:
 800e078:	4684      	mov	ip, r0
 800e07a:	4610      	mov	r0, r2
 800e07c:	4662      	mov	r2, ip
 800e07e:	468c      	mov	ip, r1
 800e080:	4619      	mov	r1, r3
 800e082:	4663      	mov	r3, ip
 800e084:	e000      	b.n	800e088 <__aeabi_cdcmpeq>
 800e086:	bf00      	nop

0800e088 <__aeabi_cdcmpeq>:
 800e088:	b501      	push	{r0, lr}
 800e08a:	f7ff ffb7 	bl	800dffc <__cmpdf2>
 800e08e:	2800      	cmp	r0, #0
 800e090:	bf48      	it	mi
 800e092:	f110 0f00 	cmnmi.w	r0, #0
 800e096:	bd01      	pop	{r0, pc}

0800e098 <__aeabi_dcmpeq>:
 800e098:	f84d ed08 	str.w	lr, [sp, #-8]!
 800e09c:	f7ff fff4 	bl	800e088 <__aeabi_cdcmpeq>
 800e0a0:	bf0c      	ite	eq
 800e0a2:	2001      	moveq	r0, #1
 800e0a4:	2000      	movne	r0, #0
 800e0a6:	f85d fb08 	ldr.w	pc, [sp], #8
 800e0aa:	bf00      	nop

0800e0ac <__aeabi_dcmplt>:
 800e0ac:	f84d ed08 	str.w	lr, [sp, #-8]!
 800e0b0:	f7ff ffea 	bl	800e088 <__aeabi_cdcmpeq>
 800e0b4:	bf34      	ite	cc
 800e0b6:	2001      	movcc	r0, #1
 800e0b8:	2000      	movcs	r0, #0
 800e0ba:	f85d fb08 	ldr.w	pc, [sp], #8
 800e0be:	bf00      	nop

0800e0c0 <__aeabi_dcmple>:
 800e0c0:	f84d ed08 	str.w	lr, [sp, #-8]!
 800e0c4:	f7ff ffe0 	bl	800e088 <__aeabi_cdcmpeq>
 800e0c8:	bf94      	ite	ls
 800e0ca:	2001      	movls	r0, #1
 800e0cc:	2000      	movhi	r0, #0
 800e0ce:	f85d fb08 	ldr.w	pc, [sp], #8
 800e0d2:	bf00      	nop

0800e0d4 <__aeabi_dcmpge>:
 800e0d4:	f84d ed08 	str.w	lr, [sp, #-8]!
 800e0d8:	f7ff ffce 	bl	800e078 <__aeabi_cdrcmple>
 800e0dc:	bf94      	ite	ls
 800e0de:	2001      	movls	r0, #1
 800e0e0:	2000      	movhi	r0, #0
 800e0e2:	f85d fb08 	ldr.w	pc, [sp], #8
 800e0e6:	bf00      	nop

0800e0e8 <__aeabi_dcmpgt>:
 800e0e8:	f84d ed08 	str.w	lr, [sp, #-8]!
 800e0ec:	f7ff ffc4 	bl	800e078 <__aeabi_cdrcmple>
 800e0f0:	bf34      	ite	cc
 800e0f2:	2001      	movcc	r0, #1
 800e0f4:	2000      	movcs	r0, #0
 800e0f6:	f85d fb08 	ldr.w	pc, [sp], #8
 800e0fa:	bf00      	nop

0800e0fc <__aeabi_d2iz>:
 800e0fc:	ea4f 0241 	mov.w	r2, r1, lsl #1
 800e100:	f512 1200 	adds.w	r2, r2, #2097152	; 0x200000
 800e104:	d215      	bcs.n	800e132 <__aeabi_d2iz+0x36>
 800e106:	d511      	bpl.n	800e12c <__aeabi_d2iz+0x30>
 800e108:	f46f 7378 	mvn.w	r3, #992	; 0x3e0
 800e10c:	ebb3 5262 	subs.w	r2, r3, r2, asr #21
 800e110:	d912      	bls.n	800e138 <__aeabi_d2iz+0x3c>
 800e112:	ea4f 23c1 	mov.w	r3, r1, lsl #11
 800e116:	f043 4300 	orr.w	r3, r3, #2147483648	; 0x80000000
 800e11a:	ea43 5350 	orr.w	r3, r3, r0, lsr #21
 800e11e:	f011 4f00 	tst.w	r1, #2147483648	; 0x80000000
 800e122:	fa23 f002 	lsr.w	r0, r3, r2
 800e126:	bf18      	it	ne
 800e128:	4240      	negne	r0, r0
 800e12a:	4770      	bx	lr
 800e12c:	f04f 0000 	mov.w	r0, #0
 800e130:	4770      	bx	lr
 800e132:	ea50 3001 	orrs.w	r0, r0, r1, lsl #12
 800e136:	d105      	bne.n	800e144 <__aeabi_d2iz+0x48>
 800e138:	f011 4000 	ands.w	r0, r1, #2147483648	; 0x80000000
 800e13c:	bf08      	it	eq
 800e13e:	f06f 4000 	mvneq.w	r0, #2147483648	; 0x80000000
 800e142:	4770      	bx	lr
 800e144:	f04f 0000 	mov.w	r0, #0
 800e148:	4770      	bx	lr
 800e14a:	bf00      	nop

0800e14c <__aeabi_d2uiz>:
 800e14c:	004a      	lsls	r2, r1, #1
 800e14e:	d211      	bcs.n	800e174 <__aeabi_d2uiz+0x28>
 800e150:	f512 1200 	adds.w	r2, r2, #2097152	; 0x200000
 800e154:	d211      	bcs.n	800e17a <__aeabi_d2uiz+0x2e>
 800e156:	d50d      	bpl.n	800e174 <__aeabi_d2uiz+0x28>
 800e158:	f46f 7378 	mvn.w	r3, #992	; 0x3e0
 800e15c:	ebb3 5262 	subs.w	r2, r3, r2, asr #21
 800e160:	d40e      	bmi.n	800e180 <__aeabi_d2uiz+0x34>
 800e162:	ea4f 23c1 	mov.w	r3, r1, lsl #11
 800e166:	f043 4300 	orr.w	r3, r3, #2147483648	; 0x80000000
 800e16a:	ea43 5350 	orr.w	r3, r3, r0, lsr #21
 800e16e:	fa23 f002 	lsr.w	r0, r3, r2
 800e172:	4770      	bx	lr
 800e174:	f04f 0000 	mov.w	r0, #0
 800e178:	4770      	bx	lr
 800e17a:	ea50 3001 	orrs.w	r0, r0, r1, lsl #12
 800e17e:	d102      	bne.n	800e186 <__aeabi_d2uiz+0x3a>
 800e180:	f04f 30ff 	mov.w	r0, #4294967295
 800e184:	4770      	bx	lr
 800e186:	f04f 0000 	mov.w	r0, #0
 800e18a:	4770      	bx	lr

0800e18c <__aeabi_d2f>:
 800e18c:	ea4f 0241 	mov.w	r2, r1, lsl #1
 800e190:	f1b2 43e0 	subs.w	r3, r2, #1879048192	; 0x70000000
 800e194:	bf24      	itt	cs
 800e196:	f5b3 1c00 	subscs.w	ip, r3, #2097152	; 0x200000
 800e19a:	f1dc 5cfe 	rsbscs	ip, ip, #532676608	; 0x1fc00000
 800e19e:	d90d      	bls.n	800e1bc <__aeabi_d2f+0x30>
 800e1a0:	f001 4c00 	and.w	ip, r1, #2147483648	; 0x80000000
 800e1a4:	ea4f 02c0 	mov.w	r2, r0, lsl #3
 800e1a8:	ea4c 7050 	orr.w	r0, ip, r0, lsr #29
 800e1ac:	f1b2 4f00 	cmp.w	r2, #2147483648	; 0x80000000
 800e1b0:	eb40 0083 	adc.w	r0, r0, r3, lsl #2
 800e1b4:	bf08      	it	eq
 800e1b6:	f020 0001 	biceq.w	r0, r0, #1
 800e1ba:	4770      	bx	lr
 800e1bc:	f011 4f80 	tst.w	r1, #1073741824	; 0x40000000
 800e1c0:	d121      	bne.n	800e206 <__aeabi_d2f+0x7a>
 800e1c2:	f113 7238 	adds.w	r2, r3, #48234496	; 0x2e00000
 800e1c6:	bfbc      	itt	lt
 800e1c8:	f001 4000 	andlt.w	r0, r1, #2147483648	; 0x80000000
 800e1cc:	4770      	bxlt	lr
 800e1ce:	f441 1180 	orr.w	r1, r1, #1048576	; 0x100000
 800e1d2:	ea4f 5252 	mov.w	r2, r2, lsr #21
 800e1d6:	f1c2 0218 	rsb	r2, r2, #24
 800e1da:	f1c2 0c20 	rsb	ip, r2, #32
 800e1de:	fa10 f30c 	lsls.w	r3, r0, ip
 800e1e2:	fa20 f002 	lsr.w	r0, r0, r2
 800e1e6:	bf18      	it	ne
 800e1e8:	f040 0001 	orrne.w	r0, r0, #1
 800e1ec:	ea4f 23c1 	mov.w	r3, r1, lsl #11
 800e1f0:	ea4f 23d3 	mov.w	r3, r3, lsr #11
 800e1f4:	fa03 fc0c 	lsl.w	ip, r3, ip
 800e1f8:	ea40 000c 	orr.w	r0, r0, ip
 800e1fc:	fa23 f302 	lsr.w	r3, r3, r2
 800e200:	ea4f 0343 	mov.w	r3, r3, lsl #1
 800e204:	e7cc      	b.n	800e1a0 <__aeabi_d2f+0x14>
 800e206:	ea7f 5362 	mvns.w	r3, r2, asr #21
 800e20a:	d107      	bne.n	800e21c <__aeabi_d2f+0x90>
 800e20c:	ea50 3301 	orrs.w	r3, r0, r1, lsl #12
 800e210:	bf1e      	ittt	ne
 800e212:	f04f 40fe 	movne.w	r0, #2130706432	; 0x7f000000
 800e216:	f440 0040 	orrne.w	r0, r0, #12582912	; 0xc00000
 800e21a:	4770      	bxne	lr
 800e21c:	f001 4000 	and.w	r0, r1, #2147483648	; 0x80000000
 800e220:	f040 40fe 	orr.w	r0, r0, #2130706432	; 0x7f000000
 800e224:	f440 0000 	orr.w	r0, r0, #8388608	; 0x800000
 800e228:	4770      	bx	lr
 800e22a:	bf00      	nop

0800e22c <__aeabi_uldivmod>:
 800e22c:	b953      	cbnz	r3, 800e244 <__aeabi_uldivmod+0x18>
 800e22e:	b94a      	cbnz	r2, 800e244 <__aeabi_uldivmod+0x18>
 800e230:	2900      	cmp	r1, #0
 800e232:	bf08      	it	eq
 800e234:	2800      	cmpeq	r0, #0
 800e236:	bf1c      	itt	ne
 800e238:	f04f 31ff 	movne.w	r1, #4294967295
 800e23c:	f04f 30ff 	movne.w	r0, #4294967295
 800e240:	f000 b994 	b.w	800e56c <__aeabi_idiv0>
 800e244:	f1ad 0c08 	sub.w	ip, sp, #8
 800e248:	e96d ce04 	strd	ip, lr, [sp, #-16]!
 800e24c:	f000 f828 	bl	800e2a0 <__udivmoddi4>
 800e250:	f8dd e004 	ldr.w	lr, [sp, #4]
 800e254:	e9dd 2302 	ldrd	r2, r3, [sp, #8]
 800e258:	b004      	add	sp, #16
 800e25a:	4770      	bx	lr

0800e25c <__aeabi_d2ulz>:
 800e25c:	b5d0      	push	{r4, r6, r7, lr}
 800e25e:	2200      	movs	r2, #0
 800e260:	4b0d      	ldr	r3, [pc, #52]	; (800e298 <__aeabi_d2ulz+0x3c>)
 800e262:	4606      	mov	r6, r0
 800e264:	460f      	mov	r7, r1
 800e266:	f7ff fcaf 	bl	800dbc8 <__aeabi_dmul>
 800e26a:	f7ff ff6f 	bl	800e14c <__aeabi_d2uiz>
 800e26e:	4604      	mov	r4, r0
 800e270:	f7ff fc30 	bl	800dad4 <__aeabi_ui2d>
 800e274:	2200      	movs	r2, #0
 800e276:	4b09      	ldr	r3, [pc, #36]	; (800e29c <__aeabi_d2ulz+0x40>)
 800e278:	f7ff fca6 	bl	800dbc8 <__aeabi_dmul>
 800e27c:	4602      	mov	r2, r0
 800e27e:	460b      	mov	r3, r1
 800e280:	4630      	mov	r0, r6
 800e282:	4639      	mov	r1, r7
 800e284:	f7ff fae8 	bl	800d858 <__aeabi_dsub>
 800e288:	f7ff ff60 	bl	800e14c <__aeabi_d2uiz>
 800e28c:	2200      	movs	r2, #0
 800e28e:	4623      	mov	r3, r4
 800e290:	4310      	orrs	r0, r2
 800e292:	4619      	mov	r1, r3
 800e294:	bdd0      	pop	{r4, r6, r7, pc}
 800e296:	bf00      	nop
 800e298:	3df00000 	.word	0x3df00000
 800e29c:	41f00000 	.word	0x41f00000

0800e2a0 <__udivmoddi4>:
 800e2a0:	e92d 47f0 	stmdb	sp!, {r4, r5, r6, r7, r8, r9, sl, lr}
 800e2a4:	9e08      	ldr	r6, [sp, #32]
 800e2a6:	4604      	mov	r4, r0
 800e2a8:	4688      	mov	r8, r1
 800e2aa:	2b00      	cmp	r3, #0
 800e2ac:	d14b      	bne.n	800e346 <__udivmoddi4+0xa6>
 800e2ae:	428a      	cmp	r2, r1
 800e2b0:	4615      	mov	r5, r2
 800e2b2:	d967      	bls.n	800e384 <__udivmoddi4+0xe4>
 800e2b4:	fab2 f282 	clz	r2, r2
 800e2b8:	b14a      	cbz	r2, 800e2ce <__udivmoddi4+0x2e>
 800e2ba:	f1c2 0720 	rsb	r7, r2, #32
 800e2be:	fa01 f302 	lsl.w	r3, r1, r2
 800e2c2:	fa20 f707 	lsr.w	r7, r0, r7
 800e2c6:	4095      	lsls	r5, r2
 800e2c8:	ea47 0803 	orr.w	r8, r7, r3
 800e2cc:	4094      	lsls	r4, r2
 800e2ce:	ea4f 4e15 	mov.w	lr, r5, lsr #16
 800e2d2:	0c23      	lsrs	r3, r4, #16
 800e2d4:	fbb8 f7fe 	udiv	r7, r8, lr
 800e2d8:	fa1f fc85 	uxth.w	ip, r5
 800e2dc:	fb0e 8817 	mls	r8, lr, r7, r8
 800e2e0:	ea43 4308 	orr.w	r3, r3, r8, lsl #16
 800e2e4:	fb07 f10c 	mul.w	r1, r7, ip
 800e2e8:	4299      	cmp	r1, r3
 800e2ea:	d909      	bls.n	800e300 <__udivmoddi4+0x60>
 800e2ec:	18eb      	adds	r3, r5, r3
 800e2ee:	f107 30ff 	add.w	r0, r7, #4294967295
 800e2f2:	f080 811b 	bcs.w	800e52c <__udivmoddi4+0x28c>
 800e2f6:	4299      	cmp	r1, r3
 800e2f8:	f240 8118 	bls.w	800e52c <__udivmoddi4+0x28c>
 800e2fc:	3f02      	subs	r7, #2
 800e2fe:	442b      	add	r3, r5
 800e300:	1a5b      	subs	r3, r3, r1
 800e302:	b2a4      	uxth	r4, r4
 800e304:	fbb3 f0fe 	udiv	r0, r3, lr
 800e308:	fb0e 3310 	mls	r3, lr, r0, r3
 800e30c:	ea44 4403 	orr.w	r4, r4, r3, lsl #16
 800e310:	fb00 fc0c 	mul.w	ip, r0, ip
 800e314:	45a4      	cmp	ip, r4
 800e316:	d909      	bls.n	800e32c <__udivmoddi4+0x8c>
 800e318:	192c      	adds	r4, r5, r4
 800e31a:	f100 33ff 	add.w	r3, r0, #4294967295
 800e31e:	f080 8107 	bcs.w	800e530 <__udivmoddi4+0x290>
 800e322:	45a4      	cmp	ip, r4
 800e324:	f240 8104 	bls.w	800e530 <__udivmoddi4+0x290>
 800e328:	3802      	subs	r0, #2
 800e32a:	442c      	add	r4, r5
 800e32c:	ea40 4007 	orr.w	r0, r0, r7, lsl #16
 800e330:	eba4 040c 	sub.w	r4, r4, ip
 800e334:	2700      	movs	r7, #0
 800e336:	b11e      	cbz	r6, 800e340 <__udivmoddi4+0xa0>
 800e338:	40d4      	lsrs	r4, r2
 800e33a:	2300      	movs	r3, #0
 800e33c:	e9c6 4300 	strd	r4, r3, [r6]
 800e340:	4639      	mov	r1, r7
 800e342:	e8bd 87f0 	ldmia.w	sp!, {r4, r5, r6, r7, r8, r9, sl, pc}
 800e346:	428b      	cmp	r3, r1
 800e348:	d909      	bls.n	800e35e <__udivmoddi4+0xbe>
 800e34a:	2e00      	cmp	r6, #0
 800e34c:	f000 80eb 	beq.w	800e526 <__udivmoddi4+0x286>
 800e350:	2700      	movs	r7, #0
 800e352:	e9c6 0100 	strd	r0, r1, [r6]
 800e356:	4638      	mov	r0, r7
 800e358:	4639      	mov	r1, r7
 800e35a:	e8bd 87f0 	ldmia.w	sp!, {r4, r5, r6, r7, r8, r9, sl, pc}
 800e35e:	fab3 f783 	clz	r7, r3
 800e362:	2f00      	cmp	r7, #0
 800e364:	d147      	bne.n	800e3f6 <__udivmoddi4+0x156>
 800e366:	428b      	cmp	r3, r1
 800e368:	d302      	bcc.n	800e370 <__udivmoddi4+0xd0>
 800e36a:	4282      	cmp	r2, r0
 800e36c:	f200 80fa 	bhi.w	800e564 <__udivmoddi4+0x2c4>
 800e370:	1a84      	subs	r4, r0, r2
 800e372:	eb61 0303 	sbc.w	r3, r1, r3
 800e376:	2001      	movs	r0, #1
 800e378:	4698      	mov	r8, r3
 800e37a:	2e00      	cmp	r6, #0
 800e37c:	d0e0      	beq.n	800e340 <__udivmoddi4+0xa0>
 800e37e:	e9c6 4800 	strd	r4, r8, [r6]
 800e382:	e7dd      	b.n	800e340 <__udivmoddi4+0xa0>
 800e384:	b902      	cbnz	r2, 800e388 <__udivmoddi4+0xe8>
 800e386:	deff      	udf	#255	; 0xff
 800e388:	fab2 f282 	clz	r2, r2
 800e38c:	2a00      	cmp	r2, #0
 800e38e:	f040 808f 	bne.w	800e4b0 <__udivmoddi4+0x210>
 800e392:	1b49      	subs	r1, r1, r5
 800e394:	ea4f 4e15 	mov.w	lr, r5, lsr #16
 800e398:	fa1f f885 	uxth.w	r8, r5
 800e39c:	2701      	movs	r7, #1
 800e39e:	fbb1 fcfe 	udiv	ip, r1, lr
 800e3a2:	0c23      	lsrs	r3, r4, #16
 800e3a4:	fb0e 111c 	mls	r1, lr, ip, r1
 800e3a8:	ea43 4301 	orr.w	r3, r3, r1, lsl #16
 800e3ac:	fb08 f10c 	mul.w	r1, r8, ip
 800e3b0:	4299      	cmp	r1, r3
 800e3b2:	d907      	bls.n	800e3c4 <__udivmoddi4+0x124>
 800e3b4:	18eb      	adds	r3, r5, r3
 800e3b6:	f10c 30ff 	add.w	r0, ip, #4294967295
 800e3ba:	d202      	bcs.n	800e3c2 <__udivmoddi4+0x122>
 800e3bc:	4299      	cmp	r1, r3
 800e3be:	f200 80cd 	bhi.w	800e55c <__udivmoddi4+0x2bc>
 800e3c2:	4684      	mov	ip, r0
 800e3c4:	1a59      	subs	r1, r3, r1
 800e3c6:	b2a3      	uxth	r3, r4
 800e3c8:	fbb1 f0fe 	udiv	r0, r1, lr
 800e3cc:	fb0e 1410 	mls	r4, lr, r0, r1
 800e3d0:	ea43 4404 	orr.w	r4, r3, r4, lsl #16
 800e3d4:	fb08 f800 	mul.w	r8, r8, r0
 800e3d8:	45a0      	cmp	r8, r4
 800e3da:	d907      	bls.n	800e3ec <__udivmoddi4+0x14c>
 800e3dc:	192c      	adds	r4, r5, r4
 800e3de:	f100 33ff 	add.w	r3, r0, #4294967295
 800e3e2:	d202      	bcs.n	800e3ea <__udivmoddi4+0x14a>
 800e3e4:	45a0      	cmp	r8, r4
 800e3e6:	f200 80b6 	bhi.w	800e556 <__udivmoddi4+0x2b6>
 800e3ea:	4618      	mov	r0, r3
 800e3ec:	eba4 0408 	sub.w	r4, r4, r8
 800e3f0:	ea40 400c 	orr.w	r0, r0, ip, lsl #16
 800e3f4:	e79f      	b.n	800e336 <__udivmoddi4+0x96>
 800e3f6:	f1c7 0c20 	rsb	ip, r7, #32
 800e3fa:	40bb      	lsls	r3, r7
 800e3fc:	fa22 fe0c 	lsr.w	lr, r2, ip
 800e400:	ea4e 0e03 	orr.w	lr, lr, r3
 800e404:	fa01 f407 	lsl.w	r4, r1, r7
 800e408:	fa20 f50c 	lsr.w	r5, r0, ip
 800e40c:	fa21 f30c 	lsr.w	r3, r1, ip
 800e410:	ea4f 481e 	mov.w	r8, lr, lsr #16
 800e414:	4325      	orrs	r5, r4
 800e416:	fbb3 f9f8 	udiv	r9, r3, r8
 800e41a:	0c2c      	lsrs	r4, r5, #16
 800e41c:	fb08 3319 	mls	r3, r8, r9, r3
 800e420:	fa1f fa8e 	uxth.w	sl, lr
 800e424:	ea44 4303 	orr.w	r3, r4, r3, lsl #16
 800e428:	fb09 f40a 	mul.w	r4, r9, sl
 800e42c:	429c      	cmp	r4, r3
 800e42e:	fa02 f207 	lsl.w	r2, r2, r7
 800e432:	fa00 f107 	lsl.w	r1, r0, r7
 800e436:	d90b      	bls.n	800e450 <__udivmoddi4+0x1b0>
 800e438:	eb1e 0303 	adds.w	r3, lr, r3
 800e43c:	f109 30ff 	add.w	r0, r9, #4294967295
 800e440:	f080 8087 	bcs.w	800e552 <__udivmoddi4+0x2b2>
 800e444:	429c      	cmp	r4, r3
 800e446:	f240 8084 	bls.w	800e552 <__udivmoddi4+0x2b2>
 800e44a:	f1a9 0902 	sub.w	r9, r9, #2
 800e44e:	4473      	add	r3, lr
 800e450:	1b1b      	subs	r3, r3, r4
 800e452:	b2ad      	uxth	r5, r5
 800e454:	fbb3 f0f8 	udiv	r0, r3, r8
 800e458:	fb08 3310 	mls	r3, r8, r0, r3
 800e45c:	ea45 4403 	orr.w	r4, r5, r3, lsl #16
 800e460:	fb00 fa0a 	mul.w	sl, r0, sl
 800e464:	45a2      	cmp	sl, r4
 800e466:	d908      	bls.n	800e47a <__udivmoddi4+0x1da>
 800e468:	eb1e 0404 	adds.w	r4, lr, r4
 800e46c:	f100 33ff 	add.w	r3, r0, #4294967295
 800e470:	d26b      	bcs.n	800e54a <__udivmoddi4+0x2aa>
 800e472:	45a2      	cmp	sl, r4
 800e474:	d969      	bls.n	800e54a <__udivmoddi4+0x2aa>
 800e476:	3802      	subs	r0, #2
 800e478:	4474      	add	r4, lr
 800e47a:	ea40 4009 	orr.w	r0, r0, r9, lsl #16
 800e47e:	fba0 8902 	umull	r8, r9, r0, r2
 800e482:	eba4 040a 	sub.w	r4, r4, sl
 800e486:	454c      	cmp	r4, r9
 800e488:	46c2      	mov	sl, r8
 800e48a:	464b      	mov	r3, r9
 800e48c:	d354      	bcc.n	800e538 <__udivmoddi4+0x298>
 800e48e:	d051      	beq.n	800e534 <__udivmoddi4+0x294>
 800e490:	2e00      	cmp	r6, #0
 800e492:	d069      	beq.n	800e568 <__udivmoddi4+0x2c8>
 800e494:	ebb1 050a 	subs.w	r5, r1, sl
 800e498:	eb64 0403 	sbc.w	r4, r4, r3
 800e49c:	fa04 fc0c 	lsl.w	ip, r4, ip
 800e4a0:	40fd      	lsrs	r5, r7
 800e4a2:	40fc      	lsrs	r4, r7
 800e4a4:	ea4c 0505 	orr.w	r5, ip, r5
 800e4a8:	e9c6 5400 	strd	r5, r4, [r6]
 800e4ac:	2700      	movs	r7, #0
 800e4ae:	e747      	b.n	800e340 <__udivmoddi4+0xa0>
 800e4b0:	f1c2 0320 	rsb	r3, r2, #32
 800e4b4:	fa20 f703 	lsr.w	r7, r0, r3
 800e4b8:	4095      	lsls	r5, r2
 800e4ba:	fa01 f002 	lsl.w	r0, r1, r2
 800e4be:	fa21 f303 	lsr.w	r3, r1, r3
 800e4c2:	ea4f 4e15 	mov.w	lr, r5, lsr #16
 800e4c6:	4338      	orrs	r0, r7
 800e4c8:	0c01      	lsrs	r1, r0, #16
 800e4ca:	fbb3 f7fe 	udiv	r7, r3, lr
 800e4ce:	fa1f f885 	uxth.w	r8, r5
 800e4d2:	fb0e 3317 	mls	r3, lr, r7, r3
 800e4d6:	ea41 4103 	orr.w	r1, r1, r3, lsl #16
 800e4da:	fb07 f308 	mul.w	r3, r7, r8
 800e4de:	428b      	cmp	r3, r1
 800e4e0:	fa04 f402 	lsl.w	r4, r4, r2
 800e4e4:	d907      	bls.n	800e4f6 <__udivmoddi4+0x256>
 800e4e6:	1869      	adds	r1, r5, r1
 800e4e8:	f107 3cff 	add.w	ip, r7, #4294967295
 800e4ec:	d22f      	bcs.n	800e54e <__udivmoddi4+0x2ae>
 800e4ee:	428b      	cmp	r3, r1
 800e4f0:	d92d      	bls.n	800e54e <__udivmoddi4+0x2ae>
 800e4f2:	3f02      	subs	r7, #2
 800e4f4:	4429      	add	r1, r5
 800e4f6:	1acb      	subs	r3, r1, r3
 800e4f8:	b281      	uxth	r1, r0
 800e4fa:	fbb3 f0fe 	udiv	r0, r3, lr
 800e4fe:	fb0e 3310 	mls	r3, lr, r0, r3
 800e502:	ea41 4103 	orr.w	r1, r1, r3, lsl #16
 800e506:	fb00 f308 	mul.w	r3, r0, r8
 800e50a:	428b      	cmp	r3, r1
 800e50c:	d907      	bls.n	800e51e <__udivmoddi4+0x27e>
 800e50e:	1869      	adds	r1, r5, r1
 800e510:	f100 3cff 	add.w	ip, r0, #4294967295
 800e514:	d217      	bcs.n	800e546 <__udivmoddi4+0x2a6>
 800e516:	428b      	cmp	r3, r1
 800e518:	d915      	bls.n	800e546 <__udivmoddi4+0x2a6>
 800e51a:	3802      	subs	r0, #2
 800e51c:	4429      	add	r1, r5
 800e51e:	1ac9      	subs	r1, r1, r3
 800e520:	ea40 4707 	orr.w	r7, r0, r7, lsl #16
 800e524:	e73b      	b.n	800e39e <__udivmoddi4+0xfe>
 800e526:	4637      	mov	r7, r6
 800e528:	4630      	mov	r0, r6
 800e52a:	e709      	b.n	800e340 <__udivmoddi4+0xa0>
 800e52c:	4607      	mov	r7, r0
 800e52e:	e6e7      	b.n	800e300 <__udivmoddi4+0x60>
 800e530:	4618      	mov	r0, r3
 800e532:	e6fb      	b.n	800e32c <__udivmoddi4+0x8c>
 800e534:	4541      	cmp	r1, r8
 800e536:	d2ab      	bcs.n	800e490 <__udivmoddi4+0x1f0>
 800e538:	ebb8 0a02 	subs.w	sl, r8, r2
 800e53c:	eb69 020e 	sbc.w	r2, r9, lr
 800e540:	3801      	subs	r0, #1
 800e542:	4613      	mov	r3, r2
 800e544:	e7a4      	b.n	800e490 <__udivmoddi4+0x1f0>
 800e546:	4660      	mov	r0, ip
 800e548:	e7e9      	b.n	800e51e <__udivmoddi4+0x27e>
 800e54a:	4618      	mov	r0, r3
 800e54c:	e795      	b.n	800e47a <__udivmoddi4+0x1da>
 800e54e:	4667      	mov	r7, ip
 800e550:	e7d1      	b.n	800e4f6 <__udivmoddi4+0x256>
 800e552:	4681      	mov	r9, r0
 800e554:	e77c      	b.n	800e450 <__udivmoddi4+0x1b0>
 800e556:	3802      	subs	r0, #2
 800e558:	442c      	add	r4, r5
 800e55a:	e747      	b.n	800e3ec <__udivmoddi4+0x14c>
 800e55c:	f1ac 0c02 	sub.w	ip, ip, #2
 800e560:	442b      	add	r3, r5
 800e562:	e72f      	b.n	800e3c4 <__udivmoddi4+0x124>
 800e564:	4638      	mov	r0, r7
 800e566:	e708      	b.n	800e37a <__udivmoddi4+0xda>
 800e568:	4637      	mov	r7, r6
 800e56a:	e6e9      	b.n	800e340 <__udivmoddi4+0xa0>

0800e56c <__aeabi_idiv0>:
 800e56c:	4770      	bx	lr
 800e56e:	bf00      	nop

0800e570 <SysClock_Config>:
//函数返回：1：成功；0：失败
//参数说明：msirange：MSI时钟频率等级
//功能概要：初始化时钟频率
//=====================================================================
uint8_t SysClock_Config(uint32_t msirange)
{
 800e570:	b082      	sub	sp, #8
  uint32_t vos;
  uint32_t latency = 0;  /* default value 0WS */

  if(READ_BIT(RCC->APB1ENR1, RCC_APB1ENR1_PWREN) != 0U)
 800e572:	4b23      	ldr	r3, [pc, #140]	; (800e600 <SysClock_Config+0x90>)
 800e574:	6d9b      	ldr	r3, [r3, #88]	; 0x58
 800e576:	f013 5f80 	tst.w	r3, #268435456	; 0x10000000
 800e57a:	d015      	beq.n	800e5a8 <SysClock_Config+0x38>
  {
	vos = (PWR->CR1 & PWR_CR1_VOS);
 800e57c:	4b21      	ldr	r3, [pc, #132]	; (800e604 <SysClock_Config+0x94>)
 800e57e:	681b      	ldr	r3, [r3, #0]
 800e580:	f403 63c0 	and.w	r3, r3, #1536	; 0x600
		 } while(0);
	vos = (PWR->CR1 & PWR_CR1_VOS);
	CLEAR_BIT(RCC->APB1ENR1, RCC_APB1ENR1_PWREN);
  }

  if(vos == PWR_CR1_VOS_0)
 800e584:	f5b3 7f00 	cmp.w	r3, #512	; 0x200
 800e588:	d021      	beq.n	800e5ce <SysClock_Config+0x5e>
  uint32_t latency = 0;  /* default value 0WS */
 800e58a:	2100      	movs	r1, #0
	  }
	}
	/* else MSI <= 16Mhz default FLASH_LATENCY_0 0WS */
  }

  MODIFY_REG(FLASH->ACR, FLASH_ACR_LATENCY, (latency));
 800e58c:	4a1e      	ldr	r2, [pc, #120]	; (800e608 <SysClock_Config+0x98>)
 800e58e:	6813      	ldr	r3, [r2, #0]
 800e590:	f023 0307 	bic.w	r3, r3, #7
 800e594:	430b      	orrs	r3, r1
 800e596:	6013      	str	r3, [r2, #0]

   /* Check that the new number of wait states is taken into account to access the Flash
      memory by reading the FLASH_ACR register */
   if(READ_BIT(FLASH->ACR, FLASH_ACR_LATENCY) != latency)
 800e598:	6813      	ldr	r3, [r2, #0]
 800e59a:	f003 0307 	and.w	r3, r3, #7
 800e59e:	428b      	cmp	r3, r1
 800e5a0:	d01f      	beq.n	800e5e2 <SysClock_Config+0x72>
   {
     return 0;
 800e5a2:	2000      	movs	r0, #0
   }
   SET_BIT(RCC->CR, RCC_CR_MSIRGSEL);
   	MODIFY_REG(RCC->CR, RCC_CR_MSIRANGE, (0xB0));
   return 1;

}
 800e5a4:	b002      	add	sp, #8
 800e5a6:	4770      	bx	lr
		   SET_BIT(RCC->APB1ENR1, RCC_APB1ENR1_PWREN);
 800e5a8:	4a15      	ldr	r2, [pc, #84]	; (800e600 <SysClock_Config+0x90>)
 800e5aa:	6d93      	ldr	r3, [r2, #88]	; 0x58
 800e5ac:	f043 5380 	orr.w	r3, r3, #268435456	; 0x10000000
 800e5b0:	6593      	str	r3, [r2, #88]	; 0x58
		   tmpreg = READ_BIT(RCC->APB1ENR1, RCC_APB1ENR1_PWREN);
 800e5b2:	6d93      	ldr	r3, [r2, #88]	; 0x58
 800e5b4:	f003 5380 	and.w	r3, r3, #268435456	; 0x10000000
 800e5b8:	9301      	str	r3, [sp, #4]
		   (void)(tmpreg);
 800e5ba:	9b01      	ldr	r3, [sp, #4]
	vos = (PWR->CR1 & PWR_CR1_VOS);
 800e5bc:	4b11      	ldr	r3, [pc, #68]	; (800e604 <SysClock_Config+0x94>)
 800e5be:	681b      	ldr	r3, [r3, #0]
 800e5c0:	f403 63c0 	and.w	r3, r3, #1536	; 0x600
	CLEAR_BIT(RCC->APB1ENR1, RCC_APB1ENR1_PWREN);
 800e5c4:	6d91      	ldr	r1, [r2, #88]	; 0x58
 800e5c6:	f021 5180 	bic.w	r1, r1, #268435456	; 0x10000000
 800e5ca:	6591      	str	r1, [r2, #88]	; 0x58
 800e5cc:	e7da      	b.n	800e584 <SysClock_Config+0x14>
	if(msirange > RCC_CR_MSIRANGE_8)
 800e5ce:	2880      	cmp	r0, #128	; 0x80
 800e5d0:	d903      	bls.n	800e5da <SysClock_Config+0x6a>
	  if(msirange > RCC_CR_MSIRANGE_10)
 800e5d2:	28a0      	cmp	r0, #160	; 0xa0
 800e5d4:	d903      	bls.n	800e5de <SysClock_Config+0x6e>
		latency = 2; /* 2WS */
 800e5d6:	2102      	movs	r1, #2
 800e5d8:	e7d8      	b.n	800e58c <SysClock_Config+0x1c>
  uint32_t latency = 0;  /* default value 0WS */
 800e5da:	2100      	movs	r1, #0
 800e5dc:	e7d6      	b.n	800e58c <SysClock_Config+0x1c>
		latency = 1; /* 1WS */
 800e5de:	2101      	movs	r1, #1
 800e5e0:	e7d4      	b.n	800e58c <SysClock_Config+0x1c>
   SET_BIT(RCC->CR, RCC_CR_MSIRGSEL);
 800e5e2:	f5a2 5280 	sub.w	r2, r2, #4096	; 0x1000
 800e5e6:	6813      	ldr	r3, [r2, #0]
 800e5e8:	f043 0308 	orr.w	r3, r3, #8
 800e5ec:	6013      	str	r3, [r2, #0]
   	MODIFY_REG(RCC->CR, RCC_CR_MSIRANGE, (0xB0));
 800e5ee:	6813      	ldr	r3, [r2, #0]
 800e5f0:	f023 03f0 	bic.w	r3, r3, #240	; 0xf0
 800e5f4:	f043 03b0 	orr.w	r3, r3, #176	; 0xb0
 800e5f8:	6013      	str	r3, [r2, #0]
   return 1;
 800e5fa:	2001      	movs	r0, #1
 800e5fc:	e7d2      	b.n	800e5a4 <SysClock_Config+0x34>
 800e5fe:	bf00      	nop
 800e600:	40021000 	.word	0x40021000
 800e604:	40007000 	.word	0x40007000
 800e608:	40022000 	.word	0x40022000

0800e60c <SystemInit>:
{
 800e60c:	b510      	push	{r4, lr}
    SCB->CPACR |= ((3UL << 10*2)|(3UL << 11*2));  /* set CP10 and CP11 Full Access */
 800e60e:	4c11      	ldr	r4, [pc, #68]	; (800e654 <SystemInit+0x48>)
 800e610:	f8d4 3088 	ldr.w	r3, [r4, #136]	; 0x88
 800e614:	f443 0370 	orr.w	r3, r3, #15728640	; 0xf00000
 800e618:	f8c4 3088 	str.w	r3, [r4, #136]	; 0x88
  RCC->CR |= RCC_CR_MSION;
 800e61c:	4b0e      	ldr	r3, [pc, #56]	; (800e658 <SystemInit+0x4c>)
 800e61e:	681a      	ldr	r2, [r3, #0]
 800e620:	f042 0201 	orr.w	r2, r2, #1
 800e624:	601a      	str	r2, [r3, #0]
  RCC->CFGR = 0x00000000U;
 800e626:	2100      	movs	r1, #0
 800e628:	6099      	str	r1, [r3, #8]
  RCC->CR &= 0xEAF6FFFFU;
 800e62a:	681a      	ldr	r2, [r3, #0]
 800e62c:	f022 52a8 	bic.w	r2, r2, #352321536	; 0x15000000
 800e630:	f422 2210 	bic.w	r2, r2, #589824	; 0x90000
 800e634:	601a      	str	r2, [r3, #0]
  RCC->PLLCFGR = 0x00001000U;
 800e636:	f44f 5280 	mov.w	r2, #4096	; 0x1000
 800e63a:	60da      	str	r2, [r3, #12]
  RCC->CR &= 0xFFFBFFFFU;
 800e63c:	681a      	ldr	r2, [r3, #0]
 800e63e:	f422 2280 	bic.w	r2, r2, #262144	; 0x40000
 800e642:	601a      	str	r2, [r3, #0]
  RCC->CIER = 0x00000000U;
 800e644:	6199      	str	r1, [r3, #24]
  SysClock_Config(0xB0);
 800e646:	20b0      	movs	r0, #176	; 0xb0
 800e648:	f7ff ff92 	bl	800e570 <SysClock_Config>
  SCB->VTOR = FLASH_BASE | VECT_TAB_OFFSET; /* Vector Table Relocation in Internal FLASH */
 800e64c:	f04f 6300 	mov.w	r3, #134217728	; 0x8000000
 800e650:	60a3      	str	r3, [r4, #8]
}
 800e652:	bd10      	pop	{r4, pc}
 800e654:	e000ed00 	.word	0xe000ed00
 800e658:	40021000 	.word	0x40021000
 800e65c:	00000000 	.word	0x00000000

0800e660 <DoubleConvertToStr>:
//函数返回：无
//参数说明：num：待转换为字符串的数字；n:保留小数位数；str：字符串转换完成后存储的位置；
//功能概要：将指定进制的浮点数型数转为字符串
//=====================================================================
uint8_t *DoubleConvertToStr(double num,int n,uint8_t *buf)
{
 800e660:	e92d 47f0 	stmdb	sp!, {r4, r5, r6, r7, r8, r9, sl, lr}
 800e664:	ed2d 8b02 	vpush	{d8}
 800e668:	ec57 6b10 	vmov	r6, r7, d0
 800e66c:	4604      	mov	r4, r0
 800e66e:	460d      	mov	r5, r1
    uint8_t *p;
    uint8_t *pp;
    uint8_t * str;
    str = buf;
    p = str;
    if(num < 0)
 800e670:	2200      	movs	r2, #0
 800e672:	2300      	movs	r3, #0
 800e674:	ee10 0a10 	vmov	r0, s0
 800e678:	4639      	mov	r1, r7
 800e67a:	f7ff fd17 	bl	800e0ac <__aeabi_dcmplt>
 800e67e:	b9a0      	cbnz	r0, 800e6aa <DoubleConvertToStr+0x4a>
    int     sign = 0;
 800e680:	f04f 0800 	mov.w	r8, #0
    {
        sign = 1;
        num = 0 - num;
    }
    sumI = (int)num;    //sumI is the part of int
 800e684:	4630      	mov	r0, r6
 800e686:	4639      	mov	r1, r7
 800e688:	f7ff fd38 	bl	800e0fc <__aeabi_d2iz>
 800e68c:	4681      	mov	r9, r0
    sumF = num - sumI;  //sumF is the part of float
 800e68e:	f7ff fa31 	bl	800daf4 <__aeabi_i2d>
 800e692:	4602      	mov	r2, r0
 800e694:	460b      	mov	r3, r1
 800e696:	4630      	mov	r0, r6
 800e698:	4639      	mov	r1, r7
 800e69a:	f7ff f8dd 	bl	800d858 <__aeabi_dsub>
 800e69e:	f7ff fd75 	bl	800e18c <__aeabi_d2f>
 800e6a2:	ee08 0a10 	vmov	s16, r0
    str = buf;
 800e6a6:	4629      	mov	r1, r5
 800e6a8:	e00b      	b.n	800e6c2 <DoubleConvertToStr+0x62>
        num = 0 - num;
 800e6aa:	4632      	mov	r2, r6
 800e6ac:	463b      	mov	r3, r7
 800e6ae:	2000      	movs	r0, #0
 800e6b0:	2100      	movs	r1, #0
 800e6b2:	f7ff f8d1 	bl	800d858 <__aeabi_dsub>
 800e6b6:	4606      	mov	r6, r0
 800e6b8:	460f      	mov	r7, r1
        sign = 1;
 800e6ba:	f04f 0801 	mov.w	r8, #1
 800e6be:	e7e1      	b.n	800e684 <DoubleConvertToStr+0x24>
    do
    {
        temp = sumI % 10;
        *(str++) = temp + '0';
 800e6c0:	4601      	mov	r1, r0
        temp = sumI % 10;
 800e6c2:	4a37      	ldr	r2, [pc, #220]	; (800e7a0 <DoubleConvertToStr+0x140>)
 800e6c4:	fb82 3209 	smull	r3, r2, r2, r9
 800e6c8:	ea4f 73e9 	mov.w	r3, r9, asr #31
 800e6cc:	ebc3 03a2 	rsb	r3, r3, r2, asr #2
 800e6d0:	461a      	mov	r2, r3
 800e6d2:	eb03 0383 	add.w	r3, r3, r3, lsl #2
 800e6d6:	0058      	lsls	r0, r3, #1
 800e6d8:	eba9 0300 	sub.w	r3, r9, r0
        *(str++) = temp + '0';
 800e6dc:	1c48      	adds	r0, r1, #1
 800e6de:	3330      	adds	r3, #48	; 0x30
 800e6e0:	700b      	strb	r3, [r1, #0]
    }while((sumI = sumI /10) != 0);
 800e6e2:	4691      	mov	r9, r2
 800e6e4:	2a00      	cmp	r2, #0
 800e6e6:	d1eb      	bne.n	800e6c0 <DoubleConvertToStr+0x60>
    if(sign == 1)
 800e6e8:	f1b8 0f00 	cmp.w	r8, #0
 800e6ec:	d102      	bne.n	800e6f4 <DoubleConvertToStr+0x94>
    {
        *(str++) = '-';
    }
    pp = str;
    pp--;
 800e6ee:	1e41      	subs	r1, r0, #1
    p = str;
 800e6f0:	462a      	mov	r2, r5
    while(p < pp)
 800e6f2:	e011      	b.n	800e718 <DoubleConvertToStr+0xb8>
        *(str++) = '-';
 800e6f4:	1c88      	adds	r0, r1, #2
 800e6f6:	232d      	movs	r3, #45	; 0x2d
 800e6f8:	704b      	strb	r3, [r1, #1]
 800e6fa:	e7f8      	b.n	800e6ee <DoubleConvertToStr+0x8e>
    {
        *p = *p + *pp;
 800e6fc:	7813      	ldrb	r3, [r2, #0]
 800e6fe:	780e      	ldrb	r6, [r1, #0]
 800e700:	4433      	add	r3, r6
 800e702:	b2db      	uxtb	r3, r3
 800e704:	7013      	strb	r3, [r2, #0]
        *pp = *p - *pp;
 800e706:	780e      	ldrb	r6, [r1, #0]
 800e708:	1b9b      	subs	r3, r3, r6
 800e70a:	b2db      	uxtb	r3, r3
 800e70c:	f801 3901 	strb.w	r3, [r1], #-1
        *p = *p -*pp;
 800e710:	7816      	ldrb	r6, [r2, #0]
 800e712:	1af3      	subs	r3, r6, r3
 800e714:	f802 3b01 	strb.w	r3, [r2], #1
    while(p < pp)
 800e718:	428a      	cmp	r2, r1
 800e71a:	d3ef      	bcc.n	800e6fc <DoubleConvertToStr+0x9c>
        p++;
        pp--;
    }
    *(str++) = '.';     //point
 800e71c:	f100 0801 	add.w	r8, r0, #1
 800e720:	232e      	movs	r3, #46	; 0x2e
 800e722:	7003      	strb	r3, [r0, #0]
 800e724:	e000      	b.n	800e728 <DoubleConvertToStr+0xc8>
 800e726:	46d0      	mov	r8, sl
    do
    {
        temp = (int)(sumF*10);
 800e728:	eef2 7a04 	vmov.f32	s15, #36	; 0x41200000  10.0
 800e72c:	ee28 8a27 	vmul.f32	s16, s16, s15
 800e730:	eefd 7ac8 	vcvt.s32.f32	s15, s16
        *(str++) = temp + '0';
 800e734:	f108 0a01 	add.w	sl, r8, #1
 800e738:	ee17 3a90 	vmov	r3, s15
 800e73c:	3330      	adds	r3, #48	; 0x30
 800e73e:	f888 3000 	strb.w	r3, [r8]

        if((++count) == n)
 800e742:	f109 0901 	add.w	r9, r9, #1
 800e746:	45a1      	cmp	r9, r4
 800e748:	d01a      	beq.n	800e780 <DoubleConvertToStr+0x120>
            break;

        sumF = sumF*10 - temp;
 800e74a:	eef8 7ae7 	vcvt.f32.s32	s15, s15
 800e74e:	ee38 8a67 	vsub.f32	s16, s16, s15

    }while(!(sumF > -0.000001 && sumF < 0.000001));
 800e752:	ee18 0a10 	vmov	r0, s16
 800e756:	f7ff f9df 	bl	800db18 <__aeabi_f2d>
 800e75a:	4606      	mov	r6, r0
 800e75c:	460f      	mov	r7, r1
 800e75e:	a30c      	add	r3, pc, #48	; (adr r3, 800e790 <DoubleConvertToStr+0x130>)
 800e760:	e9d3 2300 	ldrd	r2, r3, [r3]
 800e764:	f7ff fcc0 	bl	800e0e8 <__aeabi_dcmpgt>
 800e768:	2800      	cmp	r0, #0
 800e76a:	d0dc      	beq.n	800e726 <DoubleConvertToStr+0xc6>
 800e76c:	a30a      	add	r3, pc, #40	; (adr r3, 800e798 <DoubleConvertToStr+0x138>)
 800e76e:	e9d3 2300 	ldrd	r2, r3, [r3]
 800e772:	4630      	mov	r0, r6
 800e774:	4639      	mov	r1, r7
 800e776:	f7ff fc99 	bl	800e0ac <__aeabi_dcmplt>
 800e77a:	b908      	cbnz	r0, 800e780 <DoubleConvertToStr+0x120>
 800e77c:	46d0      	mov	r8, sl
 800e77e:	e7d3      	b.n	800e728 <DoubleConvertToStr+0xc8>
    *str = '\0';
 800e780:	2300      	movs	r3, #0
 800e782:	f888 3001 	strb.w	r3, [r8, #1]
    return buf;
}
 800e786:	4628      	mov	r0, r5
 800e788:	ecbd 8b02 	vpop	{d8}
 800e78c:	e8bd 87f0 	ldmia.w	sp!, {r4, r5, r6, r7, r8, r9, sl, pc}
 800e790:	a0b5ed8d 	.word	0xa0b5ed8d
 800e794:	beb0c6f7 	.word	0xbeb0c6f7
 800e798:	a0b5ed8d 	.word	0xa0b5ed8d
 800e79c:	3eb0c6f7 	.word	0x3eb0c6f7
 800e7a0:	66666667 	.word	0x66666667

0800e7a4 <main_Dly_ms>:


}
void main_Dly_ms(uint32_t ms)
{
	for(uint32_t i= 0; i < (4800*ms); i++) __asm("nop");
 800e7a4:	2200      	movs	r2, #0
 800e7a6:	e001      	b.n	800e7ac <main_Dly_ms+0x8>
 800e7a8:	bf00      	nop
 800e7aa:	3201      	adds	r2, #1
 800e7ac:	f44f 5396 	mov.w	r3, #4800	; 0x12c0
 800e7b0:	fb03 f300 	mul.w	r3, r3, r0
 800e7b4:	4293      	cmp	r3, r2
 800e7b6:	d8f7      	bhi.n	800e7a8 <main_Dly_ms+0x4>
}
 800e7b8:	4770      	bx	lr
	...

0800e7bc <main>:
{ 
 800e7bc:	e92d 43f0 	stmdb	sp!, {r4, r5, r6, r7, r8, r9, lr}
 800e7c0:	f2ad 4d14 	subw	sp, sp, #1044	; 0x414
	printf("进入main函数");
 800e7c4:	4892      	ldr	r0, [pc, #584]	; (800ea10 <main+0x254>)
 800e7c6:	f001 fc27 	bl	8010018 <myprintf>
	DISABLE_INTERRUPTS;
 800e7ca:	b672      	cpsid	i
    gpio_init(LIGHT_GREEN,GPIO_OUTPUT,LIGHT_OFF);
 800e7cc:	2201      	movs	r2, #1
 800e7ce:	4611      	mov	r1, r2
 800e7d0:	f44f 7084 	mov.w	r0, #264	; 0x108
 800e7d4:	f000 fa6c 	bl	800ecb0 <gpio_init>
	gpio_init(LIGHT_BLUE,GPIO_OUTPUT,LIGHT_OFF);
 800e7d8:	2201      	movs	r2, #1
 800e7da:	4611      	mov	r1, r2
 800e7dc:	f240 1009 	movw	r0, #265	; 0x109
 800e7e0:	f000 fa66 	bl	800ecb0 <gpio_init>
	gpio_init(LIGHT_RED,GPIO_OUTPUT,LIGHT_OFF);
 800e7e4:	2201      	movs	r2, #1
 800e7e6:	4611      	mov	r1, r2
 800e7e8:	f240 1007 	movw	r0, #263	; 0x107
 800e7ec:	f000 fa60 	bl	800ecb0 <gpio_init>
	uart_init(UART_User,9600); 
 800e7f0:	f44f 5116 	mov.w	r1, #9600	; 0x2580
 800e7f4:	2002      	movs	r0, #2
 800e7f6:	f000 fc03 	bl	800f000 <uart_init>
	uart_enable_re_int(UART_User);
 800e7fa:	2002      	movs	r0, #2
 800e7fc:	f000 fcf2 	bl	800f1e4 <uart_enable_re_int>
	ENABLE_INTERRUPTS;
 800e800:	b662      	cpsie	i
    LCD_Init();
 800e802:	f000 ff0f 	bl	800f624 <LCD_Init>
    LCD_aotu(2,2,238,318,0);
 800e806:	2400      	movs	r4, #0
 800e808:	9400      	str	r4, [sp, #0]
 800e80a:	f44f 739f 	mov.w	r3, #318	; 0x13e
 800e80e:	22ee      	movs	r2, #238	; 0xee
 800e810:	2102      	movs	r1, #2
 800e812:	4608      	mov	r0, r1
 800e814:	f000 fe86 	bl	800f524 <LCD_aotu>
    LCD_ShowString(35,20,BLACK,GRAY,(char *)"test1");
 800e818:	4b7e      	ldr	r3, [pc, #504]	; (800ea14 <main+0x258>)
 800e81a:	9300      	str	r3, [sp, #0]
 800e81c:	f248 4330 	movw	r3, #33840	; 0x8430
 800e820:	4622      	mov	r2, r4
 800e822:	2114      	movs	r1, #20
 800e824:	2023      	movs	r0, #35	; 0x23
 800e826:	f000 fe0b 	bl	800f440 <LCD_ShowString>
    LCD_ShowString(6,90,BLACK,GRAY,(char *)"X angle:");
 800e82a:	4b7b      	ldr	r3, [pc, #492]	; (800ea18 <main+0x25c>)
 800e82c:	9300      	str	r3, [sp, #0]
 800e82e:	f248 4330 	movw	r3, #33840	; 0x8430
 800e832:	4622      	mov	r2, r4
 800e834:	215a      	movs	r1, #90	; 0x5a
 800e836:	2006      	movs	r0, #6
 800e838:	f000 fe02 	bl	800f440 <LCD_ShowString>
    LCD_aotu(4,110,236,120,1);
 800e83c:	2501      	movs	r5, #1
 800e83e:	9500      	str	r5, [sp, #0]
 800e840:	2378      	movs	r3, #120	; 0x78
 800e842:	22ec      	movs	r2, #236	; 0xec
 800e844:	216e      	movs	r1, #110	; 0x6e
 800e846:	2004      	movs	r0, #4
 800e848:	f000 fe6c 	bl	800f524 <LCD_aotu>
    LCD_ShowString(6,125,BLACK,GRAY,(char *)"Y angle:");
 800e84c:	4b73      	ldr	r3, [pc, #460]	; (800ea1c <main+0x260>)
 800e84e:	9300      	str	r3, [sp, #0]
 800e850:	f248 4330 	movw	r3, #33840	; 0x8430
 800e854:	4622      	mov	r2, r4
 800e856:	217d      	movs	r1, #125	; 0x7d
 800e858:	2006      	movs	r0, #6
 800e85a:	f000 fdf1 	bl	800f440 <LCD_ShowString>
    LCD_aotu(4,145,236,155,1);
 800e85e:	9500      	str	r5, [sp, #0]
 800e860:	239b      	movs	r3, #155	; 0x9b
 800e862:	22ec      	movs	r2, #236	; 0xec
 800e864:	2191      	movs	r1, #145	; 0x91
 800e866:	2004      	movs	r0, #4
 800e868:	f000 fe5c 	bl	800f524 <LCD_aotu>
    LCD_ShowString(6,160,BLACK,GRAY,(char *)"Z angle:");
 800e86c:	4b6c      	ldr	r3, [pc, #432]	; (800ea20 <main+0x264>)
 800e86e:	9300      	str	r3, [sp, #0]
 800e870:	f248 4330 	movw	r3, #33840	; 0x8430
 800e874:	4622      	mov	r2, r4
 800e876:	21a0      	movs	r1, #160	; 0xa0
 800e878:	2006      	movs	r0, #6
 800e87a:	f000 fde1 	bl	800f440 <LCD_ShowString>
    printf("LCD面板初始化化完毕");
 800e87e:	4869      	ldr	r0, [pc, #420]	; (800ea24 <main+0x268>)
 800e880:	f001 fbca 	bl	8010018 <myprintf>
    LCD_aotu(4,180,236,190,1);
 800e884:	9500      	str	r5, [sp, #0]
 800e886:	23be      	movs	r3, #190	; 0xbe
 800e888:	22ec      	movs	r2, #236	; 0xec
 800e88a:	21b4      	movs	r1, #180	; 0xb4
 800e88c:	2004      	movs	r0, #4
 800e88e:	f000 fe49 	bl	800f524 <LCD_aotu>
	printf("串口中断开启");
 800e892:	4865      	ldr	r0, [pc, #404]	; (800ea28 <main+0x26c>)
 800e894:	f001 fbc0 	bl	8010018 <myprintf>
    printf("准备进入循环");
 800e898:	4864      	ldr	r0, [pc, #400]	; (800ea2c <main+0x270>)
 800e89a:	f001 fbbd 	bl	8010018 <myprintf>
 800e89e:	e0ac      	b.n	800e9fa <main+0x23e>
            angle_R[i]=(sangle[i])/32768*180;
 800e8a0:	13c0      	asrs	r0, r0, #15
 800e8a2:	4d63      	ldr	r5, [pc, #396]	; (800ea30 <main+0x274>)
 800e8a4:	eb05 05c4 	add.w	r5, r5, r4, lsl #3
 800e8a8:	23b4      	movs	r3, #180	; 0xb4
 800e8aa:	fb03 f000 	mul.w	r0, r3, r0
 800e8ae:	f7ff f921 	bl	800daf4 <__aeabi_i2d>
 800e8b2:	e9c5 0100 	strd	r0, r1, [r5]
        for(i=0;i<3;i++)
 800e8b6:	3401      	adds	r4, #1
 800e8b8:	2c02      	cmp	r4, #2
 800e8ba:	dc08      	bgt.n	800e8ce <main+0x112>
            angle_R[i]=(sangle[i])/32768*180;
 800e8bc:	4b5d      	ldr	r3, [pc, #372]	; (800ea34 <main+0x278>)
 800e8be:	f933 0014 	ldrsh.w	r0, [r3, r4, lsl #1]
 800e8c2:	2800      	cmp	r0, #0
 800e8c4:	daec      	bge.n	800e8a0 <main+0xe4>
 800e8c6:	f500 40ff 	add.w	r0, r0, #32640	; 0x7f80
 800e8ca:	307f      	adds	r0, #127	; 0x7f
 800e8cc:	e7e8      	b.n	800e8a0 <main+0xe4>
        if(sangle[1]>40)
 800e8ce:	4b59      	ldr	r3, [pc, #356]	; (800ea34 <main+0x278>)
 800e8d0:	f9b3 3002 	ldrsh.w	r3, [r3, #2]
 800e8d4:	2b28      	cmp	r3, #40	; 0x28
 800e8d6:	f300 8096 	bgt.w	800ea06 <main+0x24a>
         LCD_ShowString(65,90,BLACK,GRAY,(uint8_t *)DoubleConvertToStr((double)sangle[0]/32768*180,3,mstring));
 800e8da:	4c56      	ldr	r4, [pc, #344]	; (800ea34 <main+0x278>)
 800e8dc:	f9b4 0000 	ldrsh.w	r0, [r4]
 800e8e0:	f7ff f908 	bl	800daf4 <__aeabi_i2d>
 800e8e4:	2200      	movs	r2, #0
 800e8e6:	f04f 537c 	mov.w	r3, #1056964608	; 0x3f000000
 800e8ea:	f7ff f96d 	bl	800dbc8 <__aeabi_dmul>
 800e8ee:	2200      	movs	r2, #0
 800e8f0:	4b51      	ldr	r3, [pc, #324]	; (800ea38 <main+0x27c>)
 800e8f2:	f7ff f969 	bl	800dbc8 <__aeabi_dmul>
 800e8f6:	ec41 0b10 	vmov	d0, r0, r1
 800e8fa:	a904      	add	r1, sp, #16
 800e8fc:	2003      	movs	r0, #3
 800e8fe:	f7ff feaf 	bl	800e660 <DoubleConvertToStr>
 800e902:	9000      	str	r0, [sp, #0]
 800e904:	f248 4330 	movw	r3, #33840	; 0x8430
 800e908:	2200      	movs	r2, #0
 800e90a:	215a      	movs	r1, #90	; 0x5a
 800e90c:	2041      	movs	r0, #65	; 0x41
 800e90e:	f000 fd97 	bl	800f440 <LCD_ShowString>
   		 LCD_ShowString(65,125,BLACK,GRAY,(uint8_t *)DoubleConvertToStr((double)sangle[1]/32768*180,3,mstring));
 800e912:	f9b4 0002 	ldrsh.w	r0, [r4, #2]
 800e916:	f7ff f8ed 	bl	800daf4 <__aeabi_i2d>
 800e91a:	2200      	movs	r2, #0
 800e91c:	f04f 537c 	mov.w	r3, #1056964608	; 0x3f000000
 800e920:	f7ff f952 	bl	800dbc8 <__aeabi_dmul>
 800e924:	2200      	movs	r2, #0
 800e926:	4b44      	ldr	r3, [pc, #272]	; (800ea38 <main+0x27c>)
 800e928:	f7ff f94e 	bl	800dbc8 <__aeabi_dmul>
 800e92c:	ec41 0b10 	vmov	d0, r0, r1
 800e930:	a904      	add	r1, sp, #16
 800e932:	2003      	movs	r0, #3
 800e934:	f7ff fe94 	bl	800e660 <DoubleConvertToStr>
 800e938:	9000      	str	r0, [sp, #0]
 800e93a:	f248 4330 	movw	r3, #33840	; 0x8430
 800e93e:	2200      	movs	r2, #0
 800e940:	217d      	movs	r1, #125	; 0x7d
 800e942:	2041      	movs	r0, #65	; 0x41
 800e944:	f000 fd7c 	bl	800f440 <LCD_ShowString>
  		 LCD_ShowString(65,160,BLACK,GRAY,(uint8_t *)DoubleConvertToStr((double)sangle[2]/32768*180,3,mstring));
 800e948:	f9b4 0004 	ldrsh.w	r0, [r4, #4]
 800e94c:	f7ff f8d2 	bl	800daf4 <__aeabi_i2d>
 800e950:	2200      	movs	r2, #0
 800e952:	f04f 537c 	mov.w	r3, #1056964608	; 0x3f000000
 800e956:	f7ff f937 	bl	800dbc8 <__aeabi_dmul>
 800e95a:	2200      	movs	r2, #0
 800e95c:	4b36      	ldr	r3, [pc, #216]	; (800ea38 <main+0x27c>)
 800e95e:	f7ff f933 	bl	800dbc8 <__aeabi_dmul>
 800e962:	ec41 0b10 	vmov	d0, r0, r1
 800e966:	a904      	add	r1, sp, #16
 800e968:	2003      	movs	r0, #3
 800e96a:	f7ff fe79 	bl	800e660 <DoubleConvertToStr>
 800e96e:	9000      	str	r0, [sp, #0]
 800e970:	f248 4330 	movw	r3, #33840	; 0x8430
 800e974:	2200      	movs	r2, #0
 800e976:	21a0      	movs	r1, #160	; 0xa0
 800e978:	2041      	movs	r0, #65	; 0x41
 800e97a:	f000 fd61 	bl	800f440 <LCD_ShowString>
        printf("x轴角度为：%.3f,y轴角度为%.3f，Z轴角度为%.3f\n",(double)sangle[0]/32768*180,(double)sangle[1]/32768*180,(double)sangle[2]/32768*180);
 800e97e:	f9b4 0000 	ldrsh.w	r0, [r4]
 800e982:	f7ff f8b7 	bl	800daf4 <__aeabi_i2d>
 800e986:	2200      	movs	r2, #0
 800e988:	f04f 537c 	mov.w	r3, #1056964608	; 0x3f000000
 800e98c:	f7ff f91c 	bl	800dbc8 <__aeabi_dmul>
 800e990:	4680      	mov	r8, r0
 800e992:	4689      	mov	r9, r1
 800e994:	f9b4 0002 	ldrsh.w	r0, [r4, #2]
 800e998:	f7ff f8ac 	bl	800daf4 <__aeabi_i2d>
 800e99c:	2200      	movs	r2, #0
 800e99e:	f04f 537c 	mov.w	r3, #1056964608	; 0x3f000000
 800e9a2:	f7ff f911 	bl	800dbc8 <__aeabi_dmul>
 800e9a6:	4606      	mov	r6, r0
 800e9a8:	460f      	mov	r7, r1
 800e9aa:	f9b4 0004 	ldrsh.w	r0, [r4, #4]
 800e9ae:	f7ff f8a1 	bl	800daf4 <__aeabi_i2d>
 800e9b2:	2200      	movs	r2, #0
 800e9b4:	f04f 537c 	mov.w	r3, #1056964608	; 0x3f000000
 800e9b8:	f7ff f906 	bl	800dbc8 <__aeabi_dmul>
 800e9bc:	4604      	mov	r4, r0
 800e9be:	460d      	mov	r5, r1
 800e9c0:	2200      	movs	r2, #0
 800e9c2:	4b1d      	ldr	r3, [pc, #116]	; (800ea38 <main+0x27c>)
 800e9c4:	4640      	mov	r0, r8
 800e9c6:	4649      	mov	r1, r9
 800e9c8:	f7ff f8fe 	bl	800dbc8 <__aeabi_dmul>
 800e9cc:	4680      	mov	r8, r0
 800e9ce:	4689      	mov	r9, r1
 800e9d0:	2200      	movs	r2, #0
 800e9d2:	4b19      	ldr	r3, [pc, #100]	; (800ea38 <main+0x27c>)
 800e9d4:	4620      	mov	r0, r4
 800e9d6:	4629      	mov	r1, r5
 800e9d8:	f7ff f8f6 	bl	800dbc8 <__aeabi_dmul>
 800e9dc:	e9cd 0102 	strd	r0, r1, [sp, #8]
 800e9e0:	2200      	movs	r2, #0
 800e9e2:	4b15      	ldr	r3, [pc, #84]	; (800ea38 <main+0x27c>)
 800e9e4:	4630      	mov	r0, r6
 800e9e6:	4639      	mov	r1, r7
 800e9e8:	f7ff f8ee 	bl	800dbc8 <__aeabi_dmul>
 800e9ec:	e9cd 0100 	strd	r0, r1, [sp]
 800e9f0:	4642      	mov	r2, r8
 800e9f2:	464b      	mov	r3, r9
 800e9f4:	4811      	ldr	r0, [pc, #68]	; (800ea3c <main+0x280>)
 800e9f6:	f001 fb0f 	bl	8010018 <myprintf>
	    main_Dly_ms(5000);
 800e9fa:	f241 3088 	movw	r0, #5000	; 0x1388
 800e9fe:	f7ff fed1 	bl	800e7a4 <main_Dly_ms>
        for(i=0;i<3;i++)
 800ea02:	2400      	movs	r4, #0
 800ea04:	e758      	b.n	800e8b8 <main+0xfc>
        gpio_reverse(LIGHT_BLUE);
 800ea06:	f240 1009 	movw	r0, #265	; 0x109
 800ea0a:	f000 f989 	bl	800ed20 <gpio_reverse>
 800ea0e:	e764      	b.n	800e8da <main+0x11e>
 800ea10:	08010128 	.word	0x08010128
 800ea14:	08010138 	.word	0x08010138
 800ea18:	08010140 	.word	0x08010140
 800ea1c:	0801014c 	.word	0x0801014c
 800ea20:	08010158 	.word	0x08010158
 800ea24:	08010164 	.word	0x08010164
 800ea28:	08010178 	.word	0x08010178
 800ea2c:	08010188 	.word	0x08010188
 800ea30:	20004070 	.word	0x20004070
 800ea34:	200040ac 	.word	0x200040ac
 800ea38:	40668000 	.word	0x40668000
 800ea3c:	08010198 	.word	0x08010198

0800ea40 <flash_erase>:
//======================================================================
uint8_t flash_erase(uint16_t sect)
{
	
    //等待之前最后一个flash操作完成
    while( (FLASH->SR & FLASH_SR_BSY) != 0U);
 800ea40:	4b14      	ldr	r3, [pc, #80]	; (800ea94 <flash_erase+0x54>)
 800ea42:	691b      	ldr	r3, [r3, #16]
 800ea44:	f413 3f80 	tst.w	r3, #65536	; 0x10000
 800ea48:	d1fa      	bne.n	800ea40 <flash_erase>
    //清除之前的编程导致的所有错误标志位
	FLASH->SR &= 0xFFFFFFUL;
 800ea4a:	4b12      	ldr	r3, [pc, #72]	; (800ea94 <flash_erase+0x54>)
 800ea4c:	691a      	ldr	r2, [r3, #16]
 800ea4e:	f022 427f 	bic.w	r2, r2, #4278190080	; 0xff000000
 800ea52:	611a      	str	r2, [r3, #16]
    //清闪存即时编程位
    FLASH->CR &= ~FLASH_CR_PG;
 800ea54:	695a      	ldr	r2, [r3, #20]
 800ea56:	f022 0201 	bic.w	r2, r2, #1
 800ea5a:	615a      	str	r2, [r3, #20]
    
    //使能扇区擦除
    FLASH->CR |= FLASH_CR_PER;
 800ea5c:	695a      	ldr	r2, [r3, #20]
 800ea5e:	f042 0202 	orr.w	r2, r2, #2
 800ea62:	615a      	str	r2, [r3, #20]
    //设置擦除的扇区
    FLASH->CR &= ~FLASH_CR_PNB;
 800ea64:	695a      	ldr	r2, [r3, #20]
 800ea66:	f422 727e 	bic.w	r2, r2, #1016	; 0x3f8
 800ea6a:	615a      	str	r2, [r3, #20]
    FLASH->CR |= (uint32_t)(sect << 3u);
 800ea6c:	695a      	ldr	r2, [r3, #20]
 800ea6e:	ea42 00c0 	orr.w	r0, r2, r0, lsl #3
 800ea72:	6158      	str	r0, [r3, #20]
    //开始扇区擦除
    FLASH->CR |= FLASH_CR_STRT;
 800ea74:	695a      	ldr	r2, [r3, #20]
 800ea76:	f442 3280 	orr.w	r2, r2, #65536	; 0x10000
 800ea7a:	615a      	str	r2, [r3, #20]
    //等待擦除操作完成
    while( (FLASH->SR & FLASH_SR_BSY) != 0U);
 800ea7c:	4b05      	ldr	r3, [pc, #20]	; (800ea94 <flash_erase+0x54>)
 800ea7e:	691b      	ldr	r3, [r3, #16]
 800ea80:	f413 3f80 	tst.w	r3, #65536	; 0x10000
 800ea84:	d1fa      	bne.n	800ea7c <flash_erase+0x3c>
    //禁止扇区擦除
    FLASH->CR &= ~FLASH_CR_PER;
 800ea86:	4a03      	ldr	r2, [pc, #12]	; (800ea94 <flash_erase+0x54>)
 800ea88:	6953      	ldr	r3, [r2, #20]
 800ea8a:	f023 0302 	bic.w	r3, r3, #2
 800ea8e:	6153      	str	r3, [r2, #20]
    
    return 0;  //成功返回
}
 800ea90:	2000      	movs	r0, #0
 800ea92:	4770      	bx	lr
 800ea94:	40022000 	.word	0x40022000

0800ea98 <flash_read_logic>:
//       offset:扇区内部偏移地址（0~2024，要求为0,4,8,12，......）
//       N：读字节数目（4~2048,要求为4,8,12,......）//
//功能概要：读取flash存储器的sect扇区的 offset处开始的N字节，到RAM区dest处
//=======================================================================
void flash_read_logic(uint8_t *dest,uint16_t sect,uint16_t offset,uint16_t N)
{
 800ea98:	b508      	push	{r3, lr}
    uint8_t *src;
    src=(uint8_t *)(FLASH_BASE+sect*FLASH_PAGE_SIZE+offset);
 800ea9a:	f501 3180 	add.w	r1, r1, #65536	; 0x10000
 800ea9e:	eb02 21c1 	add.w	r1, r2, r1, lsl #11
    memcpy(dest,src,N);
 800eaa2:	461a      	mov	r2, r3
 800eaa4:	f001 fb1e 	bl	80100e4 <memcpy>
}
 800eaa8:	bd08      	pop	{r3, pc}

0800eaaa <flash_read_physical>:
//       addr：目标地址，要求为4的倍数（例如：0x00000004）
//       N：读字节数目（0~1020,要求为4，8,12,......）
//功能概要：读取flash指定地址的内容
//======================================================================
void flash_read_physical(uint8_t *dest,uint32_t addr,uint16_t N)
{
 800eaaa:	b508      	push	{r3, lr}
    uint8_t *src;
    src=(uint8_t *)addr;
    memcpy(dest,src,N);
 800eaac:	f001 fb1a 	bl	80100e4 <memcpy>
}
 800eab0:	bd08      	pop	{r3, pc}

0800eab2 <flash_isempty>:
//参数说明：所要探测的flash区域初始地址
//功能概要：flash判空操作
//======================================================================

uint8_t flash_isempty(uint16_t sect,uint16_t N)
{
 800eab2:	b5b0      	push	{r4, r5, r7, lr}
 800eab4:	af00      	add	r7, sp, #0
 800eab6:	460c      	mov	r4, r1
    uint16_t i,flag;
    uint8_t dest[N];
 800eab8:	1dcb      	adds	r3, r1, #7
 800eaba:	08db      	lsrs	r3, r3, #3
 800eabc:	466a      	mov	r2, sp
 800eabe:	eba2 03c3 	sub.w	r3, r2, r3, lsl #3
 800eac2:	469d      	mov	sp, r3
 800eac4:	466d      	mov	r5, sp
    uint8_t *src;
    flag = 1;
    src=(uint8_t *)(FLASH_BASE+sect*FLASH_PAGE_SIZE);
 800eac6:	f500 3180 	add.w	r1, r0, #65536	; 0x10000
    memcpy(dest,src,N);
 800eaca:	4622      	mov	r2, r4
 800eacc:	02c9      	lsls	r1, r1, #11
 800eace:	4668      	mov	r0, sp
 800ead0:	f001 fb08 	bl	80100e4 <memcpy>
    for(i = 0; i<N; i++)   //遍历区域内字节
 800ead4:	2300      	movs	r3, #0
 800ead6:	42a3      	cmp	r3, r4
 800ead8:	d205      	bcs.n	800eae6 <flash_isempty+0x34>
    {
        if(dest[i]!=0xff)   //非空
 800eada:	5cea      	ldrb	r2, [r5, r3]
 800eadc:	2aff      	cmp	r2, #255	; 0xff
 800eade:	d105      	bne.n	800eaec <flash_isempty+0x3a>
    for(i = 0; i<N; i++)   //遍历区域内字节
 800eae0:	3301      	adds	r3, #1
 800eae2:	b29b      	uxth	r3, r3
 800eae4:	e7f7      	b.n	800ead6 <flash_isempty+0x24>
    flag = 1;
 800eae6:	2001      	movs	r0, #1
            flag=0;
            break;
        }
    }
    return flag;
}
 800eae8:	46bd      	mov	sp, r7
 800eaea:	bdb0      	pop	{r4, r5, r7, pc}
            flag=0;
 800eaec:	2000      	movs	r0, #0
 800eaee:	e7fb      	b.n	800eae8 <flash_isempty+0x36>

0800eaf0 <flash_write_DoubleWord>:
//              （例如：0x08000004，Flash首地址为0x08000000）
//       data：写入的双字
//功能概要：Flash双字写入操作（STM32L433每次只能实现双字写入，先写低位字，再写高位字）
//======================================================================
uint8_t flash_write_DoubleWord(uint32_t addr,uint32_t data_l,uint32_t data_h)
{
 800eaf0:	b410      	push	{r4}
    //清数据缓冲区
    if((FLASH->ACR & FLASH_ACR_DCEN) != 0U)
 800eaf2:	4b0c      	ldr	r3, [pc, #48]	; (800eb24 <flash_write_DoubleWord+0x34>)
 800eaf4:	681b      	ldr	r3, [r3, #0]
 800eaf6:	f413 6f80 	tst.w	r3, #1024	; 0x400
 800eafa:	d004      	beq.n	800eb06 <flash_write_DoubleWord+0x16>
    {
        FLASH->ACR &= ~FLASH_ACR_DCEN;
 800eafc:	4c09      	ldr	r4, [pc, #36]	; (800eb24 <flash_write_DoubleWord+0x34>)
 800eafe:	6823      	ldr	r3, [r4, #0]
 800eb00:	f423 6380 	bic.w	r3, r3, #1024	; 0x400
 800eb04:	6023      	str	r3, [r4, #0]
    }
    
    //使能Flash即时编程
    FLASH->CR |= FLASH_CR_PG;
 800eb06:	4b07      	ldr	r3, [pc, #28]	; (800eb24 <flash_write_DoubleWord+0x34>)
 800eb08:	695c      	ldr	r4, [r3, #20]
 800eb0a:	f044 0401 	orr.w	r4, r4, #1
 800eb0e:	615c      	str	r4, [r3, #20]
    
    //先写入低位字
    *(__IO uint32_t*)addr = data_l;
 800eb10:	6001      	str	r1, [r0, #0]
    
    //再写入高位字
    *(__IO uint32_t*)(addr+4U) = data_h;
 800eb12:	6042      	str	r2, [r0, #4]
    
    //禁止Flash即时编程
    FLASH->CR &= ~FLASH_CR_PG;
 800eb14:	695a      	ldr	r2, [r3, #20]
 800eb16:	f022 0201 	bic.w	r2, r2, #1
 800eb1a:	615a      	str	r2, [r3, #20]
    
    return 0;    //返回成功
}
 800eb1c:	2000      	movs	r0, #0
 800eb1e:	f85d 4b04 	ldr.w	r4, [sp], #4
 800eb22:	4770      	bx	lr
 800eb24:	40022000 	.word	0x40022000

0800eb28 <flash_Best>:
//			N：待写入数据字节数
//			buf:待写入数据的首地址
//功能概要：首位地址都对齐的情况下的数据写入
//======================================================================
uint8_t flash_Best(uint16_t sect,uint16_t offset,uint16_t N,uint8_t *buf)
{
 800eb28:	b5f8      	push	{r3, r4, r5, r6, r7, lr}
 800eb2a:	4617      	mov	r7, r2
 800eb2c:	461d      	mov	r5, r3
    uint32_t temp_l,temp_h;
    uint32_t addr;
    uint16_t i;
    while( (FLASH->SR & FLASH_SR_BSY) != 0U);
 800eb2e:	4b18      	ldr	r3, [pc, #96]	; (800eb90 <flash_Best+0x68>)
 800eb30:	691b      	ldr	r3, [r3, #16]
 800eb32:	f413 3f80 	tst.w	r3, #65536	; 0x10000
 800eb36:	d1fa      	bne.n	800eb2e <flash_Best+0x6>
    //计算双字写入绝对地址
    addr = (uint32_t)(FLASH_BASE+sect*FLASH_PAGE_SIZE+offset);
 800eb38:	f500 3080 	add.w	r0, r0, #65536	; 0x10000
 800eb3c:	eb01 26c0 	add.w	r6, r1, r0, lsl #11
    //循环写入双字，每8个数写一次
    for(i = 0; i < N; i+=8)
 800eb40:	2400      	movs	r4, #0
 800eb42:	e01b      	b.n	800eb7c <flash_Best+0x54>
    {
        //低位字赋值
        temp_l = (uint32_t)((buf[i])|(buf[i+1]<<8)|(buf[i+2]<<16)|(buf[i+3]<<24));
 800eb44:	5d28      	ldrb	r0, [r5, r4]
 800eb46:	192b      	adds	r3, r5, r4
 800eb48:	7859      	ldrb	r1, [r3, #1]
 800eb4a:	ea40 2001 	orr.w	r0, r0, r1, lsl #8
 800eb4e:	7899      	ldrb	r1, [r3, #2]
 800eb50:	ea40 4001 	orr.w	r0, r0, r1, lsl #16
 800eb54:	78d9      	ldrb	r1, [r3, #3]
        //高位字赋值
        temp_h = (uint32_t)((buf[i+4])|(buf[i+5]<<8)|(buf[i+6]<<16)|(buf[i+7]<<24));
 800eb56:	791a      	ldrb	r2, [r3, #4]
 800eb58:	f893 c005 	ldrb.w	ip, [r3, #5]
 800eb5c:	ea42 220c 	orr.w	r2, r2, ip, lsl #8
 800eb60:	f893 c006 	ldrb.w	ip, [r3, #6]
 800eb64:	ea42 420c 	orr.w	r2, r2, ip, lsl #16
 800eb68:	79db      	ldrb	r3, [r3, #7]
        //在绝对地址(addr+i)，实现双字写入
        flash_write_DoubleWord((addr+i),temp_l,temp_h);
 800eb6a:	ea42 6203 	orr.w	r2, r2, r3, lsl #24
 800eb6e:	ea40 6101 	orr.w	r1, r0, r1, lsl #24
 800eb72:	19a0      	adds	r0, r4, r6
 800eb74:	f7ff ffbc 	bl	800eaf0 <flash_write_DoubleWord>
    for(i = 0; i < N; i+=8)
 800eb78:	3408      	adds	r4, #8
 800eb7a:	b2a4      	uxth	r4, r4
 800eb7c:	42bc      	cmp	r4, r7
 800eb7e:	d3e1      	bcc.n	800eb44 <flash_Best+0x1c>
    }
    while( (FLASH->SR & FLASH_SR_BSY) != 0U);
 800eb80:	4b03      	ldr	r3, [pc, #12]	; (800eb90 <flash_Best+0x68>)
 800eb82:	691b      	ldr	r3, [r3, #16]
 800eb84:	f413 3f80 	tst.w	r3, #65536	; 0x10000
 800eb88:	d1fa      	bne.n	800eb80 <flash_Best+0x58>
    return 0;
}
 800eb8a:	2000      	movs	r0, #0
 800eb8c:	bdf8      	pop	{r3, r4, r5, r6, r7, pc}
 800eb8e:	bf00      	nop
 800eb90:	40022000 	.word	0x40022000

0800eb94 <flash_write>:
{
 800eb94:	e92d 41f0 	stmdb	sp!, {r4, r5, r6, r7, r8, lr}
 800eb98:	f5ad 6d00 	sub.w	sp, sp, #2048	; 0x800
 800eb9c:	4607      	mov	r7, r0
 800eb9e:	4614      	mov	r4, r2
 800eba0:	461d      	mov	r5, r3
	FLASH->SR &= 0xFFFFFFUL;
 800eba2:	4a22      	ldr	r2, [pc, #136]	; (800ec2c <flash_write+0x98>)
 800eba4:	6913      	ldr	r3, [r2, #16]
 800eba6:	f023 437f 	bic.w	r3, r3, #4278190080	; 0xff000000
 800ebaa:	6113      	str	r3, [r2, #16]
    if(offset+N>MCU_SECTORSIZE)
 800ebac:	1863      	adds	r3, r4, r1
 800ebae:	f5b3 6f00 	cmp.w	r3, #2048	; 0x800
 800ebb2:	dc09      	bgt.n	800ebc8 <flash_write+0x34>
 800ebb4:	460e      	mov	r6, r1
        flash_read_logic(data,sect,0,MCU_SECTORSIZE); //将当前扇区的全部值读入数组中
 800ebb6:	f44f 6300 	mov.w	r3, #2048	; 0x800
 800ebba:	2200      	movs	r2, #0
 800ebbc:	4601      	mov	r1, r0
 800ebbe:	4668      	mov	r0, sp
 800ebc0:	f7ff ff6a 	bl	800ea98 <flash_read_logic>
        for(i = 0;i<N;i++)
 800ebc4:	2300      	movs	r3, #0
 800ebc6:	e01b      	b.n	800ec00 <flash_write+0x6c>
 800ebc8:	4688      	mov	r8, r1
        flash_write(sect,offset,MCU_SECTORSIZE-offset,buf);
 800ebca:	f5c1 6200 	rsb	r2, r1, #2048	; 0x800
 800ebce:	462b      	mov	r3, r5
 800ebd0:	b292      	uxth	r2, r2
 800ebd2:	f7ff ffdf 	bl	800eb94 <flash_write>
        flash_write(sect+1,0,N-(MCU_SECTORSIZE-offset),buf+(MCU_SECTORSIZE-offset));
 800ebd6:	eb08 0204 	add.w	r2, r8, r4
 800ebda:	b292      	uxth	r2, r2
 800ebdc:	f5c8 6300 	rsb	r3, r8, #2048	; 0x800
 800ebe0:	f5a2 6200 	sub.w	r2, r2, #2048	; 0x800
 800ebe4:	1c78      	adds	r0, r7, #1
 800ebe6:	442b      	add	r3, r5
 800ebe8:	b292      	uxth	r2, r2
 800ebea:	2100      	movs	r1, #0
 800ebec:	b280      	uxth	r0, r0
 800ebee:	f7ff ffd1 	bl	800eb94 <flash_write>
 800ebf2:	e011      	b.n	800ec18 <flash_write+0x84>
            data[offset+i] = buf[i];
 800ebf4:	199a      	adds	r2, r3, r6
 800ebf6:	5ce9      	ldrb	r1, [r5, r3]
 800ebf8:	f80d 1002 	strb.w	r1, [sp, r2]
        for(i = 0;i<N;i++)
 800ebfc:	3301      	adds	r3, #1
 800ebfe:	b29b      	uxth	r3, r3
 800ec00:	42a3      	cmp	r3, r4
 800ec02:	d3f7      	bcc.n	800ebf4 <flash_write+0x60>
        flash_erase(sect);
 800ec04:	4638      	mov	r0, r7
 800ec06:	f7ff ff1b 	bl	800ea40 <flash_erase>
        flash_Best(sect,0,MCU_SECTORSIZE,data);
 800ec0a:	466b      	mov	r3, sp
 800ec0c:	f44f 6200 	mov.w	r2, #2048	; 0x800
 800ec10:	2100      	movs	r1, #0
 800ec12:	4638      	mov	r0, r7
 800ec14:	f7ff ff88 	bl	800eb28 <flash_Best>
	while( (FLASH->SR & FLASH_SR_BSY) != 0U);
 800ec18:	4b04      	ldr	r3, [pc, #16]	; (800ec2c <flash_write+0x98>)
 800ec1a:	691b      	ldr	r3, [r3, #16]
 800ec1c:	f413 3f80 	tst.w	r3, #65536	; 0x10000
 800ec20:	d1fa      	bne.n	800ec18 <flash_write+0x84>
}
 800ec22:	2000      	movs	r0, #0
 800ec24:	f50d 6d00 	add.w	sp, sp, #2048	; 0x800
 800ec28:	e8bd 81f0 	ldmia.w	sp!, {r4, r5, r6, r7, r8, pc}
 800ec2c:	40022000 	.word	0x40022000

0800ec30 <flash_write_physical>:
{
 800ec30:	b510      	push	{r4, lr}
 800ec32:	4603      	mov	r3, r0
    sect = (addr-MCU_FLASH_ADDR_START)/MCU_SECTORSIZE;
 800ec34:	f3c0 20cf 	ubfx	r0, r0, #11, #16
    offset = addr-(sect*MCU_SECTORSIZE)-MCU_FLASH_ADDR_START;
 800ec38:	b29b      	uxth	r3, r3
 800ec3a:	02c4      	lsls	r4, r0, #11
 800ec3c:	b2a4      	uxth	r4, r4
 800ec3e:	1b1c      	subs	r4, r3, r4
    flash_write(sect,offset,N,buf);
 800ec40:	4613      	mov	r3, r2
 800ec42:	460a      	mov	r2, r1
 800ec44:	b2a1      	uxth	r1, r4
 800ec46:	f7ff ffa5 	bl	800eb94 <flash_write>
	while( (FLASH->SR & FLASH_SR_BSY) != 0U);
 800ec4a:	4b03      	ldr	r3, [pc, #12]	; (800ec58 <flash_write_physical+0x28>)
 800ec4c:	691b      	ldr	r3, [r3, #16]
 800ec4e:	f413 3f80 	tst.w	r3, #65536	; 0x10000
 800ec52:	d1fa      	bne.n	800ec4a <flash_write_physical+0x1a>
}
 800ec54:	2000      	movs	r0, #0
 800ec56:	bd10      	pop	{r4, pc}
 800ec58:	40022000 	.word	0x40022000

0800ec5c <gpio_get_port_pin>:
//功能概要：将传进参数port_pin进行解析，得出具体端口号与引脚号，分别赋值给port与pin,返回。
//       （例：(PTB_NUM)|(9)解析为PORTB与9，并将其分别赋值给port与pin）。
//=====================================================================
void gpio_get_port_pin(uint16_t port_pin,uint8_t* port,uint8_t* pin)
{
	*port = (port_pin>>8);
 800ec5c:	0a03      	lsrs	r3, r0, #8
 800ec5e:	700b      	strb	r3, [r1, #0]
	*pin = port_pin;
 800ec60:	7010      	strb	r0, [r2, #0]
}
 800ec62:	4770      	bx	lr

0800ec64 <gpio_set>:
{
 800ec64:	b510      	push	{r4, lr}
 800ec66:	b082      	sub	sp, #8
 800ec68:	460c      	mov	r4, r1
	gpio_get_port_pin(port_pin,&port,&pin);
 800ec6a:	f10d 0206 	add.w	r2, sp, #6
 800ec6e:	f10d 0107 	add.w	r1, sp, #7
 800ec72:	f7ff fff3 	bl	800ec5c <gpio_get_port_pin>
	if(7 == port) //GPIOH
 800ec76:	f89d 3007 	ldrb.w	r3, [sp, #7]
 800ec7a:	2b07      	cmp	r3, #7
 800ec7c:	d00b      	beq.n	800ec96 <gpio_set+0x32>
		gpio_ptr = GPIO_ARR[port];
 800ec7e:	4a0b      	ldr	r2, [pc, #44]	; (800ecac <gpio_set+0x48>)
 800ec80:	f852 2023 	ldr.w	r2, [r2, r3, lsl #2]
	if(1 == state)    //高电平(该引脚对应置位寄存器置1)
 800ec84:	2c01      	cmp	r4, #1
 800ec86:	d00b      	beq.n	800eca0 <gpio_set+0x3c>
		gpio_ptr->BRR = (uint32_t)(1u<<pin);
 800ec88:	f89d 1006 	ldrb.w	r1, [sp, #6]
 800ec8c:	2301      	movs	r3, #1
 800ec8e:	408b      	lsls	r3, r1
 800ec90:	6293      	str	r3, [r2, #40]	; 0x28
}
 800ec92:	b002      	add	sp, #8
 800ec94:	bd10      	pop	{r4, pc}
		gpio_ptr = GPIO_ARR[port-2];
 800ec96:	3b02      	subs	r3, #2
 800ec98:	4a04      	ldr	r2, [pc, #16]	; (800ecac <gpio_set+0x48>)
 800ec9a:	f852 2023 	ldr.w	r2, [r2, r3, lsl #2]
 800ec9e:	e7f1      	b.n	800ec84 <gpio_set+0x20>
		gpio_ptr->BSRR = (uint32_t)(1u<<pin);
 800eca0:	f89d 1006 	ldrb.w	r1, [sp, #6]
 800eca4:	2301      	movs	r3, #1
 800eca6:	408b      	lsls	r3, r1
 800eca8:	6193      	str	r3, [r2, #24]
 800ecaa:	e7f2      	b.n	800ec92 <gpio_set+0x2e>
 800ecac:	20004004 	.word	0x20004004

0800ecb0 <gpio_init>:
{
 800ecb0:	b5f0      	push	{r4, r5, r6, r7, lr}
 800ecb2:	b083      	sub	sp, #12
 800ecb4:	4605      	mov	r5, r0
 800ecb6:	460c      	mov	r4, r1
 800ecb8:	4616      	mov	r6, r2
	gpio_get_port_pin(port_pin,&port,&pin);
 800ecba:	f10d 0206 	add.w	r2, sp, #6
 800ecbe:	f10d 0107 	add.w	r1, sp, #7
 800ecc2:	f7ff ffcb 	bl	800ec5c <gpio_get_port_pin>
	if(7 == port) //GPIOH
 800ecc6:	f89d 1007 	ldrb.w	r1, [sp, #7]
 800ecca:	2907      	cmp	r1, #7
 800eccc:	d015      	beq.n	800ecfa <gpio_init+0x4a>
		gpio_ptr = GPIO_ARR[port];
 800ecce:	4b12      	ldr	r3, [pc, #72]	; (800ed18 <gpio_init+0x68>)
 800ecd0:	f853 0021 	ldr.w	r0, [r3, r1, lsl #2]
	RCC->AHB2ENR |= (RCC_AHB2ENR_GPIOAEN<<(port * 1u));
 800ecd4:	4f11      	ldr	r7, [pc, #68]	; (800ed1c <gpio_init+0x6c>)
 800ecd6:	6cfb      	ldr	r3, [r7, #76]	; 0x4c
 800ecd8:	2201      	movs	r2, #1
 800ecda:	408a      	lsls	r2, r1
 800ecdc:	4313      	orrs	r3, r2
 800ecde:	64fb      	str	r3, [r7, #76]	; 0x4c
	temp = gpio_ptr->MODER;
 800ece0:	6801      	ldr	r1, [r0, #0]
	temp &= ~(GPIO_MODER_MODE0 << (pin * 2u));
 800ece2:	f89d 3006 	ldrb.w	r3, [sp, #6]
 800ece6:	005b      	lsls	r3, r3, #1
 800ece8:	2203      	movs	r2, #3
 800ecea:	409a      	lsls	r2, r3
 800ecec:	ea21 0202 	bic.w	r2, r1, r2
	if(dir == 1)  //定义为输出引脚
 800ecf0:	2c01      	cmp	r4, #1
 800ecf2:	d007      	beq.n	800ed04 <gpio_init+0x54>
		gpio_ptr->MODER = temp;
 800ecf4:	6002      	str	r2, [r0, #0]
}
 800ecf6:	b003      	add	sp, #12
 800ecf8:	bdf0      	pop	{r4, r5, r6, r7, pc}
		gpio_ptr = GPIO_ARR[port-2];
 800ecfa:	1e8b      	subs	r3, r1, #2
 800ecfc:	4a06      	ldr	r2, [pc, #24]	; (800ed18 <gpio_init+0x68>)
 800ecfe:	f852 0023 	ldr.w	r0, [r2, r3, lsl #2]
 800ed02:	e7e7      	b.n	800ecd4 <gpio_init+0x24>
		temp |= (GPIO_OUTPUT << (pin * 2u));
 800ed04:	2101      	movs	r1, #1
 800ed06:	fa01 f303 	lsl.w	r3, r1, r3
 800ed0a:	431a      	orrs	r2, r3
		gpio_ptr->MODER = temp;
 800ed0c:	6002      	str	r2, [r0, #0]
		gpio_set(port_pin,state);    //调用gpio_set函数，设定引脚初始状态
 800ed0e:	4631      	mov	r1, r6
 800ed10:	4628      	mov	r0, r5
 800ed12:	f7ff ffa7 	bl	800ec64 <gpio_set>
 800ed16:	e7ee      	b.n	800ecf6 <gpio_init+0x46>
 800ed18:	20004004 	.word	0x20004004
 800ed1c:	40021000 	.word	0x40021000

0800ed20 <gpio_reverse>:
{
 800ed20:	b500      	push	{lr}
 800ed22:	b083      	sub	sp, #12
	gpio_get_port_pin(port_pin,&port,&pin);
 800ed24:	f10d 0206 	add.w	r2, sp, #6
 800ed28:	f10d 0107 	add.w	r1, sp, #7
 800ed2c:	f7ff ff96 	bl	800ec5c <gpio_get_port_pin>
	if(7 == port) //GPIOH
 800ed30:	f89d 3007 	ldrb.w	r3, [sp, #7]
 800ed34:	2b07      	cmp	r3, #7
 800ed36:	d00d      	beq.n	800ed54 <gpio_reverse+0x34>
		gpio_ptr = GPIO_ARR[port];
 800ed38:	4a0a      	ldr	r2, [pc, #40]	; (800ed64 <gpio_reverse+0x44>)
 800ed3a:	f852 2023 	ldr.w	r2, [r2, r3, lsl #2]
	if ((gpio_ptr->ODR & (1u<<pin)) != 0x00u)
 800ed3e:	6951      	ldr	r1, [r2, #20]
 800ed40:	f89d 0006 	ldrb.w	r0, [sp, #6]
 800ed44:	2301      	movs	r3, #1
 800ed46:	4083      	lsls	r3, r0
 800ed48:	4219      	tst	r1, r3
 800ed4a:	d108      	bne.n	800ed5e <gpio_reverse+0x3e>
		gpio_ptr->BSRR = (uint32_t)(1u<<pin);
 800ed4c:	6193      	str	r3, [r2, #24]
}
 800ed4e:	b003      	add	sp, #12
 800ed50:	f85d fb04 	ldr.w	pc, [sp], #4
		gpio_ptr = GPIO_ARR[port-2];
 800ed54:	3b02      	subs	r3, #2
 800ed56:	4a03      	ldr	r2, [pc, #12]	; (800ed64 <gpio_reverse+0x44>)
 800ed58:	f852 2023 	ldr.w	r2, [r2, r3, lsl #2]
 800ed5c:	e7ef      	b.n	800ed3e <gpio_reverse+0x1e>
		gpio_ptr->BRR = (uint32_t)(1u<<pin);
 800ed5e:	6293      	str	r3, [r2, #40]	; 0x28
 800ed60:	e7f5      	b.n	800ed4e <gpio_reverse+0x2e>
 800ed62:	bf00      	nop
 800ed64:	20004004 	.word	0x20004004

0800ed68 <wdog_feed>:
// 函数返回：无
// 功能概要： 喂狗，重载计时器
// ===========================================================================
void wdog_feed(void)
{
	IWDG->KR = IWDG_KEY_RELOAD;    //重装载看门狗计数器
 800ed68:	4b02      	ldr	r3, [pc, #8]	; (800ed74 <wdog_feed+0xc>)
 800ed6a:	f64a 22aa 	movw	r2, #43690	; 0xaaaa
 800ed6e:	601a      	str	r2, [r3, #0]
}
 800ed70:	4770      	bx	lr
 800ed72:	bf00      	nop
 800ed74:	40003000 	.word	0x40003000

0800ed78 <spi_init>:
//       CPHA：CPHA=0相位为0； CPHA=1相位为1；
//函数返回：无
//=====================================================================
void spi_init(uint8_t No,uint8_t MSTR,uint16_t BaudRate,\
uint8_t CPOL,uint8_t CPHA)
{
 800ed78:	b430      	push	{r4, r5}
    uint32_t temp = 0x00;    //
    uint16_t Freq_div;
    uint8_t BaudRate_Mode;
    if(No<SPI_1||No>SPI_3)   No=SPI_1;    //如果SPI号参数错误则强制选择 SPI1
 800ed7a:	2802      	cmp	r0, #2
 800ed7c:	d822      	bhi.n	800edc4 <spi_init+0x4c>
    //（1）使能SPI和对应GPIO时钟
    switch(No)
 800ed7e:	b310      	cbz	r0, 800edc6 <spi_init+0x4e>
 800ed80:	2801      	cmp	r0, #1
 800ed82:	d14f      	bne.n	800ee24 <spi_init+0xac>
        //配置引脚速率
        GPIOA->OSPEEDR |= 0xc000fc00;
        break;
        case SPI_2:
        //使能SPI2和GPIOB时钟
        RCC->APB1ENR1 |= RCC_APB1ENR1_SPI2EN;
 800ed84:	4c4a      	ldr	r4, [pc, #296]	; (800eeb0 <spi_init+0x138>)
 800ed86:	6da5      	ldr	r5, [r4, #88]	; 0x58
 800ed88:	f445 4580 	orr.w	r5, r5, #16384	; 0x4000
 800ed8c:	65a5      	str	r5, [r4, #88]	; 0x58
        RCC->AHB2ENR |= RCC_AHB2ENR_GPIOBEN;
 800ed8e:	6ce5      	ldr	r5, [r4, #76]	; 0x4c
 800ed90:	f045 0502 	orr.w	r5, r5, #2
 800ed94:	64e5      	str	r5, [r4, #76]	; 0x4c
        //使能PTB13,PTB14,PTB15,PTB12为SPI(SCK,MISO,MOSI,NSS)功能
        GPIOB->MODER &= ~(GPIO_MODER_MODE12|GPIO_MODER_MODE13|GPIO_MODER_MODE14|GPIO_MODER_MODE15);
 800ed96:	4c47      	ldr	r4, [pc, #284]	; (800eeb4 <spi_init+0x13c>)
 800ed98:	6825      	ldr	r5, [r4, #0]
 800ed9a:	f025 457f 	bic.w	r5, r5, #4278190080	; 0xff000000
 800ed9e:	6025      	str	r5, [r4, #0]
        GPIOB->MODER |= (GPIO_MODER_MODE12_1|GPIO_MODER_MODE13_1|GPIO_MODER_MODE14_1|GPIO_MODER_MODE15_1);
 800eda0:	6825      	ldr	r5, [r4, #0]
 800eda2:	f045 452a 	orr.w	r5, r5, #2852126720	; 0xaa000000
 800eda6:	6025      	str	r5, [r4, #0]
        GPIOB->AFR[1] &= ~(GPIO_AFRH_AFSEL12|GPIO_AFRH_AFSEL13|GPIO_AFRH_AFSEL14|GPIO_AFRH_AFSEL15);
 800eda8:	6a65      	ldr	r5, [r4, #36]	; 0x24
 800edaa:	b2ad      	uxth	r5, r5
 800edac:	6265      	str	r5, [r4, #36]	; 0x24
        GPIOB->AFR[1] |= (GPIO_AFRH_AFSEL12_0 | GPIO_AFRH_AFSEL12_2)|(GPIO_AFRH_AFSEL13_0 | GPIO_AFRH_AFSEL13_2)|(GPIO_AFRH_AFSEL14_0 | GPIO_AFRH_AFSEL14_2)|(GPIO_AFRH_AFSEL15_0 | GPIO_AFRH_AFSEL15_2);
 800edae:	6a65      	ldr	r5, [r4, #36]	; 0x24
 800edb0:	f045 45aa 	orr.w	r5, r5, #1426063360	; 0x55000000
 800edb4:	f445 05aa 	orr.w	r5, r5, #5570560	; 0x550000
 800edb8:	6265      	str	r5, [r4, #36]	; 0x24
        //配置引脚速率
        GPIOB->OSPEEDR |= 0xff000000;
 800edba:	68a5      	ldr	r5, [r4, #8]
 800edbc:	f045 457f 	orr.w	r5, r5, #4278190080	; 0xff000000
 800edc0:	60a5      	str	r5, [r4, #8]
        break;
 800edc2:	e02f      	b.n	800ee24 <spi_init+0xac>
    if(No<SPI_1||No>SPI_3)   No=SPI_1;    //如果SPI号参数错误则强制选择 SPI1
 800edc4:	2000      	movs	r0, #0
        RCC->APB2ENR |= RCC_APB2ENR_SPI1EN;
 800edc6:	4c3a      	ldr	r4, [pc, #232]	; (800eeb0 <spi_init+0x138>)
 800edc8:	6e25      	ldr	r5, [r4, #96]	; 0x60
 800edca:	f445 5580 	orr.w	r5, r5, #4096	; 0x1000
 800edce:	6625      	str	r5, [r4, #96]	; 0x60
        RCC->AHB2ENR |= RCC_AHB2ENR_GPIOAEN;
 800edd0:	6ce5      	ldr	r5, [r4, #76]	; 0x4c
 800edd2:	f045 0501 	orr.w	r5, r5, #1
 800edd6:	64e5      	str	r5, [r4, #76]	; 0x4c
        GPIOA->MODER &= ~(GPIO_MODER_MODE5|GPIO_MODER_MODE6|GPIO_MODER_MODE7|GPIO_MODER_MODE15);
 800edd8:	f04f 4490 	mov.w	r4, #1207959552	; 0x48000000
 800eddc:	6825      	ldr	r5, [r4, #0]
 800edde:	f025 4540 	bic.w	r5, r5, #3221225472	; 0xc0000000
 800ede2:	f425 457c 	bic.w	r5, r5, #64512	; 0xfc00
 800ede6:	6025      	str	r5, [r4, #0]
        GPIOA->MODER |= (GPIO_MODER_MODE5_1|GPIO_MODER_MODE6_1|GPIO_MODER_MODE7_1|GPIO_MODER_MODE15_1);
 800ede8:	6825      	ldr	r5, [r4, #0]
 800edea:	f045 4500 	orr.w	r5, r5, #2147483648	; 0x80000000
 800edee:	f445 4528 	orr.w	r5, r5, #43008	; 0xa800
 800edf2:	6025      	str	r5, [r4, #0]
        GPIOA->AFR[0] &= ~(GPIO_AFRL_AFSEL5|GPIO_AFRL_AFSEL6|GPIO_AFRL_AFSEL7);
 800edf4:	6a25      	ldr	r5, [r4, #32]
 800edf6:	f3c5 0513 	ubfx	r5, r5, #0, #20
 800edfa:	6225      	str	r5, [r4, #32]
        GPIOA->AFR[0] |= ((GPIO_AFRL_AFSEL5_0 | GPIO_AFRL_AFSEL5_2) | (GPIO_AFRL_AFSEL6_0 | GPIO_AFRL_AFSEL6_2) | (GPIO_AFRL_AFSEL7_0 | GPIO_AFRL_AFSEL7_2));
 800edfc:	6a25      	ldr	r5, [r4, #32]
 800edfe:	f045 45aa 	orr.w	r5, r5, #1426063360	; 0x55000000
 800ee02:	f445 05a0 	orr.w	r5, r5, #5242880	; 0x500000
 800ee06:	6225      	str	r5, [r4, #32]
        GPIOA->AFR[1] &= ~GPIO_AFRH_AFSEL15;
 800ee08:	6a65      	ldr	r5, [r4, #36]	; 0x24
 800ee0a:	f025 4570 	bic.w	r5, r5, #4026531840	; 0xf0000000
 800ee0e:	6265      	str	r5, [r4, #36]	; 0x24
        GPIOA->AFR[1] |= (GPIO_AFRH_AFSEL15_0 | GPIO_AFRH_AFSEL15_2);
 800ee10:	6a65      	ldr	r5, [r4, #36]	; 0x24
 800ee12:	f045 45a0 	orr.w	r5, r5, #1342177280	; 0x50000000
 800ee16:	6265      	str	r5, [r4, #36]	; 0x24
        GPIOA->OSPEEDR |= 0xc000fc00;
 800ee18:	68a5      	ldr	r5, [r4, #8]
 800ee1a:	f045 4540 	orr.w	r5, r5, #3221225472	; 0xc0000000
 800ee1e:	f445 457c 	orr.w	r5, r5, #64512	; 0xfc00
 800ee22:	60a5      	str	r5, [r4, #8]
        break;
    }

    //（2）配置CR1寄存器
    //（2.1）暂时禁用SPI功能
    SPI_ARR[No]->CR1 &= ~SPI_CR1_SPE;
 800ee24:	4604      	mov	r4, r0
 800ee26:	4d24      	ldr	r5, [pc, #144]	; (800eeb8 <spi_init+0x140>)
 800ee28:	f855 5020 	ldr.w	r5, [r5, r0, lsl #2]
 800ee2c:	6828      	ldr	r0, [r5, #0]
 800ee2e:	f020 0040 	bic.w	r0, r0, #64	; 0x40
 800ee32:	6028      	str	r0, [r5, #0]
    //（2.2）配置SPI主从机模式
    if(MSTR == 1)    //主机模式
 800ee34:	2901      	cmp	r1, #1
 800ee36:	d016      	beq.n	800ee66 <spi_init+0xee>
    else    //从机模式
    {
        temp &= ~SPI_CR1_MSTR;
        //配置NSS脚由软件控制，置位为0
        temp |= SPI_CR1_SSM;
        temp &= ~SPI_CR1_SSI;
 800ee38:	f44f 7100 	mov.w	r1, #512	; 0x200
    }

    //（2.3）配置SPI相位和极性
    if(CPOL == 1)
 800ee3c:	2b01      	cmp	r3, #1
 800ee3e:	d015      	beq.n	800ee6c <spi_init+0xf4>
    temp |= SPI_CR1_CPOL;
    else
    temp &= ~SPI_CR1_CPOL;
 800ee40:	f021 0302 	bic.w	r3, r1, #2

    if(CPHA == 1)
 800ee44:	f89d 1008 	ldrb.w	r1, [sp, #8]
 800ee48:	2901      	cmp	r1, #1
 800ee4a:	d012      	beq.n	800ee72 <spi_init+0xfa>
    temp |= SPI_CR1_CPHA;
    else
    temp &= ~SPI_CR1_CPHA;
 800ee4c:	f023 0101 	bic.w	r1, r3, #1

    //（2.4）配置SPI波特率
    Freq_div = SystemCoreClock/1000/BaudRate;
 800ee50:	4b1a      	ldr	r3, [pc, #104]	; (800eebc <spi_init+0x144>)
 800ee52:	681b      	ldr	r3, [r3, #0]
 800ee54:	481a      	ldr	r0, [pc, #104]	; (800eec0 <spi_init+0x148>)
 800ee56:	fba0 0303 	umull	r0, r3, r0, r3
 800ee5a:	099b      	lsrs	r3, r3, #6
 800ee5c:	fbb3 f2f2 	udiv	r2, r3, r2
 800ee60:	b292      	uxth	r2, r2
    BaudRate_Mode = 0;
 800ee62:	2300      	movs	r3, #0
    while(Freq_div/2 >= 2)
 800ee64:	e00b      	b.n	800ee7e <spi_init+0x106>
        temp |= SPI_CR1_SSI|SPI_CR1_SSM;
 800ee66:	f44f 7141 	mov.w	r1, #772	; 0x304
 800ee6a:	e7e7      	b.n	800ee3c <spi_init+0xc4>
    temp |= SPI_CR1_CPOL;
 800ee6c:	f041 0302 	orr.w	r3, r1, #2
 800ee70:	e7e8      	b.n	800ee44 <spi_init+0xcc>
    temp |= SPI_CR1_CPHA;
 800ee72:	f043 0101 	orr.w	r1, r3, #1
 800ee76:	e7eb      	b.n	800ee50 <spi_init+0xd8>
    {
        BaudRate_Mode++;
 800ee78:	3301      	adds	r3, #1
 800ee7a:	b2db      	uxtb	r3, r3
        Freq_div = Freq_div/2;
 800ee7c:	0852      	lsrs	r2, r2, #1
    while(Freq_div/2 >= 2)
 800ee7e:	2a03      	cmp	r2, #3
 800ee80:	d8fa      	bhi.n	800ee78 <spi_init+0x100>
    }
    temp |= (BaudRate_Mode<<3);
 800ee82:	ea41 03c3 	orr.w	r3, r1, r3, lsl #3

    //（2.5）统一配置CR1寄存器
    SPI_ARR[No]->CR1 |= temp;
 800ee86:	4a0c      	ldr	r2, [pc, #48]	; (800eeb8 <spi_init+0x140>)
 800ee88:	f852 0024 	ldr.w	r0, [r2, r4, lsl #2]
 800ee8c:	6801      	ldr	r1, [r0, #0]
 800ee8e:	430b      	orrs	r3, r1
 800ee90:	6003      	str	r3, [r0, #0]
    temp = 0x00;
    //（3.1）配置数据为16bit
    //	temp |= SPI_CR2_DS;
    temp |= (SPI_CR2_DS_0|SPI_CR2_DS_1|SPI_CR2_DS_2);
    temp |= SPI_CR2_FRXTH;
    SPI_ARR[No]->CR2 |= temp;
 800ee92:	f852 1024 	ldr.w	r1, [r2, r4, lsl #2]
 800ee96:	684b      	ldr	r3, [r1, #4]
 800ee98:	f443 53b8 	orr.w	r3, r3, #5888	; 0x1700
 800ee9c:	604b      	str	r3, [r1, #4]
    //（4）使能SPI功能
    SPI_ARR[No]->CR1 |= SPI_CR1_SPE;
 800ee9e:	f852 2024 	ldr.w	r2, [r2, r4, lsl #2]
 800eea2:	6813      	ldr	r3, [r2, #0]
 800eea4:	f043 0340 	orr.w	r3, r3, #64	; 0x40
 800eea8:	6013      	str	r3, [r2, #0]
}
 800eeaa:	bc30      	pop	{r4, r5}
 800eeac:	4770      	bx	lr
 800eeae:	bf00      	nop
 800eeb0:	40021000 	.word	0x40021000
 800eeb4:	48000400 	.word	0x48000400
 800eeb8:	2000401c 	.word	0x2000401c
 800eebc:	20004000 	.word	0x20004000
 800eec0:	10624dd3 	.word	0x10624dd3

0800eec4 <spi_send1>:
//函数参数：No：模块号，可用参数可参见gec.h文件
//       data：     需要发送的一字节数据。
//函数返回：0：发送失败；1：发送成功。
//=====================================================================
uint8_t spi_send1(uint8_t No,uint8_t data)
{
 800eec4:	b410      	push	{r4}
 800eec6:	b083      	sub	sp, #12
    volatile uint32_t i;

    i = 0;
 800eec8:	2300      	movs	r3, #0
 800eeca:	9301      	str	r3, [sp, #4]

    if(No<SPI_1||No>SPI_3)   return 0;  //如果SPI号参数错误则发送失败
 800eecc:	2802      	cmp	r0, #2
 800eece:	d836      	bhi.n	800ef3e <spi_send1+0x7a>

    //若SPI未使能，则使能
    if ((SPI_ARR[No]->CR1 & SPI_CR1_SPE) != SPI_CR1_SPE)
 800eed0:	4604      	mov	r4, r0
 800eed2:	4b1d      	ldr	r3, [pc, #116]	; (800ef48 <spi_send1+0x84>)
 800eed4:	f853 3020 	ldr.w	r3, [r3, r0, lsl #2]
 800eed8:	681a      	ldr	r2, [r3, #0]
 800eeda:	f012 0f40 	tst.w	r2, #64	; 0x40
 800eede:	d103      	bne.n	800eee8 <spi_send1+0x24>
    {
        SPI_ARR[No]->CR1 |= SPI_CR1_SPE;
 800eee0:	681a      	ldr	r2, [r3, #0]
 800eee2:	f042 0240 	orr.w	r2, r2, #64	; 0x40
 800eee6:	601a      	str	r2, [r3, #0]
    }
    //判断发送缓冲区是否为空。若为空，则发送数据
    while((SPI_ARR[No]->SR & SPI_SR_TXE) !=  SPI_SR_TXE)
 800eee8:	4b17      	ldr	r3, [pc, #92]	; (800ef48 <spi_send1+0x84>)
 800eeea:	f853 3024 	ldr.w	r3, [r3, r4, lsl #2]
 800eeee:	689a      	ldr	r2, [r3, #8]
 800eef0:	f012 0f02 	tst.w	r2, #2
 800eef4:	d109      	bne.n	800ef0a <spi_send1+0x46>
    {
        i++;
 800eef6:	9b01      	ldr	r3, [sp, #4]
 800eef8:	3301      	adds	r3, #1
 800eefa:	9301      	str	r3, [sp, #4]
        if(i>0xfffe) return 0;
 800eefc:	9a01      	ldr	r2, [sp, #4]
 800eefe:	f64f 73fe 	movw	r3, #65534	; 0xfffe
 800ef02:	429a      	cmp	r2, r3
 800ef04:	d9f0      	bls.n	800eee8 <spi_send1+0x24>
 800ef06:	2000      	movs	r0, #0
 800ef08:	e01a      	b.n	800ef40 <spi_send1+0x7c>
    }
    *((__IO uint8_t *)&SPI_ARR[No]->DR) = data;
 800ef0a:	7319      	strb	r1, [r3, #12]
    i = 0;
 800ef0c:	2300      	movs	r3, #0
 800ef0e:	9301      	str	r3, [sp, #4]

    //接收回发数据，防止发送缓冲区溢出
    while((SPI_ARR[No]->SR & SPI_SR_RXNE) !=  SPI_SR_RXNE)
 800ef10:	4b0d      	ldr	r3, [pc, #52]	; (800ef48 <spi_send1+0x84>)
 800ef12:	f853 3024 	ldr.w	r3, [r3, r4, lsl #2]
 800ef16:	689a      	ldr	r2, [r3, #8]
 800ef18:	f012 0f01 	tst.w	r2, #1
 800ef1c:	d109      	bne.n	800ef32 <spi_send1+0x6e>
    {
        i++;
 800ef1e:	9b01      	ldr	r3, [sp, #4]
 800ef20:	3301      	adds	r3, #1
 800ef22:	9301      	str	r3, [sp, #4]
        if(i>0xfffe) return 0;
 800ef24:	9a01      	ldr	r2, [sp, #4]
 800ef26:	f64f 73fe 	movw	r3, #65534	; 0xfffe
 800ef2a:	429a      	cmp	r2, r3
 800ef2c:	d9f0      	bls.n	800ef10 <spi_send1+0x4c>
 800ef2e:	2000      	movs	r0, #0
 800ef30:	e006      	b.n	800ef40 <spi_send1+0x7c>
    }
    //读一次DR,SR，防止DR,SR不被清空
    i = SPI_ARR[No]->DR;
 800ef32:	68da      	ldr	r2, [r3, #12]
 800ef34:	9201      	str	r2, [sp, #4]
    i = SPI_ARR[No]->SR;
 800ef36:	689b      	ldr	r3, [r3, #8]
 800ef38:	9301      	str	r3, [sp, #4]
    return 1;
 800ef3a:	2001      	movs	r0, #1
 800ef3c:	e000      	b.n	800ef40 <spi_send1+0x7c>
    if(No<SPI_1||No>SPI_3)   return 0;  //如果SPI号参数错误则发送失败
 800ef3e:	2000      	movs	r0, #0
}
 800ef40:	b003      	add	sp, #12
 800ef42:	f85d 4b04 	ldr.w	r4, [sp], #4
 800ef46:	4770      	bx	lr
 800ef48:	2000401c 	.word	0x2000401c

0800ef4c <Vectors_Init>:
//参数说明：无
//功能概要：User对BIOS中断向量表的部分继承,构件库函数指针初始化
//修改信息：WYH，20200805，规范
//======================================================================
void  Vectors_Init()
{
 800ef4c:	b500      	push	{lr}
 800ef4e:	f6ad 0d04 	subw	sp, sp, #2052	; 0x804
    //有用户程序，编译本段代码
    #if (GEC_USER_SECTOR_START!=0)   
    //（1）若Flash倒数1扇区的前24字节为空，则写入设备序列号及软件版本号初值
    if(flash_isempty(MCU_SECTOR_NUM-1,24))
 800ef52:	2118      	movs	r1, #24
 800ef54:	207f      	movs	r0, #127	; 0x7f
 800ef56:	f7ff fdac 	bl	800eab2 <flash_isempty>
 800ef5a:	2800      	cmp	r0, #0
 800ef5c:	d12d      	bne.n	800efba <Vectors_Init+0x6e>
    }
    //（2）继承BIOS的串口中断
    void ** bios=(void *)MCU_FLASH_ADDR_START;   //向量表起始地址
    uint32_t user[MCU_SECTORSIZE/4];     //向量表变量数组
    //读取USER中断向量表各中断处理程序地址赋给user数组
    flash_read_physical((uint8_t *)user,GEC_USER_SECTOR_START*
 800ef5e:	f44f 6200 	mov.w	r2, #2048	; 0x800
 800ef62:	4919      	ldr	r1, [pc, #100]	; (800efc8 <Vectors_Init+0x7c>)
 800ef64:	4668      	mov	r0, sp
 800ef66:	f7ff fda0 	bl	800eaaa <flash_read_physical>
    MCU_SECTORSIZE+MCU_FLASH_ADDR_START,MCU_SECTORSIZE);
    //判断USER中串口更新中断是否为BIOS对应中断地址。若是，则不作操作；否则修改
    //为BIOS对应中断地址
    if(user[BIOS_UART_UPDATE_IRQn] != (uint32_t)bios[BIOS_UART_UPDATE_IRQn])
 800ef6a:	9a37      	ldr	r2, [sp, #220]	; 0xdc
 800ef6c:	4b17      	ldr	r3, [pc, #92]	; (800efcc <Vectors_Init+0x80>)
 800ef6e:	681b      	ldr	r3, [r3, #0]
 800ef70:	429a      	cmp	r2, r3
 800ef72:	d014      	beq.n	800ef9e <Vectors_Init+0x52>
    {
        //改变User中断向量表中BIOS_UART中断向量
        flash_erase(GEC_USER_SECTOR_START);
 800ef74:	201a      	movs	r0, #26
 800ef76:	f7ff fd63 	bl	800ea40 <flash_erase>
        //改USER中断向量表的BIOS程序写入串口的中断处理程序地址
        user[BIOS_UART_UPDATE_IRQn]=(uint32_t)bios[BIOS_UART_UPDATE_IRQn];
 800ef7a:	4b14      	ldr	r3, [pc, #80]	; (800efcc <Vectors_Init+0x80>)
 800ef7c:	681b      	ldr	r3, [r3, #0]
 800ef7e:	9337      	str	r3, [sp, #220]	; 0xdc
        
    #if (RTThread_Start!=1)       
        user[BIOS_SVC_IRQn]=(uint32_t)bios[BIOS_SVC_IRQn];
 800ef80:	4b13      	ldr	r3, [pc, #76]	; (800efd0 <Vectors_Init+0x84>)
 800ef82:	681b      	ldr	r3, [r3, #0]
 800ef84:	930b      	str	r3, [sp, #44]	; 0x2c
		user[BIOS_PendSV_Handler]=(uint32_t)bios[BIOS_PendSV_Handler];
 800ef86:	4b13      	ldr	r3, [pc, #76]	; (800efd4 <Vectors_Init+0x88>)
 800ef88:	681b      	ldr	r3, [r3, #0]
 800ef8a:	930e      	str	r3, [sp, #56]	; 0x38
		user[BIOS_SysTick_Handler]=(uint32_t)bios[BIOS_SysTick_Handler];
 800ef8c:	4b12      	ldr	r3, [pc, #72]	; (800efd8 <Vectors_Init+0x8c>)
 800ef8e:	681b      	ldr	r3, [r3, #0]
 800ef90:	930f      	str	r3, [sp, #60]	; 0x3c
    #endif
		
        flash_write_physical(GEC_USER_SECTOR_START*MCU_SECTORSIZE+
 800ef92:	466a      	mov	r2, sp
 800ef94:	f44f 6100 	mov.w	r1, #2048	; 0x800
 800ef98:	480b      	ldr	r0, [pc, #44]	; (800efc8 <Vectors_Init+0x7c>)
 800ef9a:	f7ff fe49 	bl	800ec30 <flash_write_physical>
        MCU_FLASH_ADDR_START,MCU_SECTORSIZE,(uint8_t *)user);
    }
    
    //（3）中断向量表指针重定向到USER程序的中断向量表
    SCB->VTOR = (uint32_t)(GEC_USER_SECTOR_START*MCU_SECTORSIZE+
 800ef9e:	4b0f      	ldr	r3, [pc, #60]	; (800efdc <Vectors_Init+0x90>)
 800efa0:	4a09      	ldr	r2, [pc, #36]	; (800efc8 <Vectors_Init+0x7c>)
 800efa2:	609a      	str	r2, [r3, #8]
    MCU_FLASH_ADDR_START);  
    //（4）给component_fun赋值，SYSTEM_FUNCTION函数用
    component_fun=(void **)(MCU_FLASH_ADDR_START+
 800efa4:	4b0e      	ldr	r3, [pc, #56]	; (800efe0 <Vectors_Init+0x94>)
 800efa6:	f5a2 5260 	sub.w	r2, r2, #14336	; 0x3800
 800efaa:	601a      	str	r2, [r3, #0]
                   GEC_COMPONENT_LST_START*MCU_SECTORSIZE); 
    //（5）printf提示
    printf("  【User提示】：将进入User的main()执行...\r\n");
 800efac:	480d      	ldr	r0, [pc, #52]	; (800efe4 <Vectors_Init+0x98>)
 800efae:	f001 f833 	bl	8010018 <myprintf>
    
    #endif
}
 800efb2:	f60d 0d04 	addw	sp, sp, #2052	; 0x804
 800efb6:	f85d fb04 	ldr.w	pc, [sp], #4
        flash_write_physical((MCU_SECTOR_NUM-1)*MCU_SECTORSIZE+
 800efba:	4a0b      	ldr	r2, [pc, #44]	; (800efe8 <Vectors_Init+0x9c>)
 800efbc:	2118      	movs	r1, #24
 800efbe:	480b      	ldr	r0, [pc, #44]	; (800efec <Vectors_Init+0xa0>)
 800efc0:	f7ff fe36 	bl	800ec30 <flash_write_physical>
 800efc4:	e7cb      	b.n	800ef5e <Vectors_Init+0x12>
 800efc6:	bf00      	nop
 800efc8:	0800d000 	.word	0x0800d000
 800efcc:	080000dc 	.word	0x080000dc
 800efd0:	0800002c 	.word	0x0800002c
 800efd4:	08000038 	.word	0x08000038
 800efd8:	0800003c 	.word	0x0800003c
 800efdc:	e000ed00 	.word	0xe000ed00
 800efe0:	200048e0 	.word	0x200048e0
 800efe4:	080101e4 	.word	0x080101e4
 800efe8:	080101c8 	.word	0x080101c8
 800efec:	0803f800 	.word	0x0803f800

0800eff0 <uart_is_uartNo>:
//参数说明：串口号uartNo  :UART_1、UART_2、UART_3
//功能概要：为程序健壮性而判断uartNo是否在串口数字范围内
//=====================================================================
uint8_t uart_is_uartNo(uint8_t uartNo)
{
    if(uartNo < UART_1 || uartNo > UART_3)
 800eff0:	3801      	subs	r0, #1
 800eff2:	b2c0      	uxtb	r0, r0
 800eff4:	2802      	cmp	r0, #2
 800eff6:	d801      	bhi.n	800effc <uart_is_uartNo+0xc>
        return 0;
    else
        return 1;
 800eff8:	2001      	movs	r0, #1
}
 800effa:	4770      	bx	lr
        return 0;
 800effc:	2000      	movs	r0, #0
 800effe:	4770      	bx	lr

0800f000 <uart_init>:
{
 800f000:	b538      	push	{r3, r4, r5, lr}
 800f002:	4604      	mov	r4, r0
 800f004:	460d      	mov	r5, r1
	if(!uart_is_uartNo(uartNo))
 800f006:	f7ff fff3 	bl	800eff0 <uart_is_uartNo>
 800f00a:	2800      	cmp	r0, #0
 800f00c:	d03c      	beq.n	800f088 <uart_init+0x88>
	switch(uartNo)
 800f00e:	2c02      	cmp	r4, #2
 800f010:	d057      	beq.n	800f0c2 <uart_init+0xc2>
 800f012:	2c03      	cmp	r4, #3
 800f014:	d071      	beq.n	800f0fa <uart_init+0xfa>
 800f016:	2c01      	cmp	r4, #1
 800f018:	d037      	beq.n	800f08a <uart_init+0x8a>
	USART_ARR[uartNo-1]->CR1 &= ~USART_CR1_UE;
 800f01a:	1e60      	subs	r0, r4, #1
 800f01c:	4b47      	ldr	r3, [pc, #284]	; (800f13c <uart_init+0x13c>)
 800f01e:	f853 1020 	ldr.w	r1, [r3, r0, lsl #2]
 800f022:	680a      	ldr	r2, [r1, #0]
 800f024:	f022 0201 	bic.w	r2, r2, #1
 800f028:	600a      	str	r2, [r1, #0]
	USART_ARR[uartNo-1]->CR1 &= ~(USART_CR1_TE_Msk|USART_CR1_RE_Msk);
 800f02a:	f853 1020 	ldr.w	r1, [r3, r0, lsl #2]
 800f02e:	680a      	ldr	r2, [r1, #0]
 800f030:	f022 020c 	bic.w	r2, r2, #12
 800f034:	600a      	str	r2, [r1, #0]
	if((USART_ARR[uartNo-1]->CR1 & USART_CR1_OVER8_Msk) == USART_CR1_OVER8_Msk)
 800f036:	f853 3020 	ldr.w	r3, [r3, r0, lsl #2]
 800f03a:	681a      	ldr	r2, [r3, #0]
 800f03c:	f412 4f00 	tst.w	r2, #32768	; 0x8000
 800f040:	d076      	beq.n	800f130 <uart_init+0x130>
	    usartdiv = (uint16_t)((SystemCoreClock/baud_rate)*2);
 800f042:	4a3f      	ldr	r2, [pc, #252]	; (800f140 <uart_init+0x140>)
 800f044:	6811      	ldr	r1, [r2, #0]
 800f046:	fbb1 f1f5 	udiv	r1, r1, r5
 800f04a:	b289      	uxth	r1, r1
 800f04c:	0049      	lsls	r1, r1, #1
 800f04e:	b289      	uxth	r1, r1
	USART_ARR[uartNo-1]->BRR = usartdiv;
 800f050:	60d9      	str	r1, [r3, #12]
	USART_ARR[uartNo-1]->ISR = 0;
 800f052:	4b3a      	ldr	r3, [pc, #232]	; (800f13c <uart_init+0x13c>)
 800f054:	f853 2020 	ldr.w	r2, [r3, r0, lsl #2]
 800f058:	2100      	movs	r1, #0
 800f05a:	61d1      	str	r1, [r2, #28]
	USART_ARR[uartNo-1]->CR2 &= ~(USART_CR2_LINEN | USART_CR2_CLKEN);
 800f05c:	6851      	ldr	r1, [r2, #4]
 800f05e:	f421 4190 	bic.w	r1, r1, #18432	; 0x4800
 800f062:	6051      	str	r1, [r2, #4]
	USART_ARR[uartNo-1]->CR3 &= ~(USART_CR3_SCEN | USART_CR3_HDSEL | USART_CR3_IREN);
 800f064:	f853 1020 	ldr.w	r1, [r3, r0, lsl #2]
 800f068:	688a      	ldr	r2, [r1, #8]
 800f06a:	f022 022a 	bic.w	r2, r2, #42	; 0x2a
 800f06e:	608a      	str	r2, [r1, #8]
	USART_ARR[uartNo-1]->CR1 |= (USART_CR1_TE|USART_CR1_RE);
 800f070:	f853 1020 	ldr.w	r1, [r3, r0, lsl #2]
 800f074:	680a      	ldr	r2, [r1, #0]
 800f076:	f042 020c 	orr.w	r2, r2, #12
 800f07a:	600a      	str	r2, [r1, #0]
	USART_ARR[uartNo-1]->CR1 |= USART_CR1_UE;
 800f07c:	f853 2020 	ldr.w	r2, [r3, r0, lsl #2]
 800f080:	6813      	ldr	r3, [r2, #0]
 800f082:	f043 0301 	orr.w	r3, r3, #1
 800f086:	6013      	str	r3, [r2, #0]
}
 800f088:	bd38      	pop	{r3, r4, r5, pc}
			RCC->APB2ENR |= RCC_APB2ENR_USART1EN;
 800f08a:	4b2e      	ldr	r3, [pc, #184]	; (800f144 <uart_init+0x144>)
 800f08c:	6e1a      	ldr	r2, [r3, #96]	; 0x60
 800f08e:	f442 4280 	orr.w	r2, r2, #16384	; 0x4000
 800f092:	661a      	str	r2, [r3, #96]	; 0x60
			RCC->AHB2ENR |= RCC_AHB2ENR_GPIOAEN;
 800f094:	6cda      	ldr	r2, [r3, #76]	; 0x4c
 800f096:	f042 0201 	orr.w	r2, r2, #1
 800f09a:	64da      	str	r2, [r3, #76]	; 0x4c
			GPIOA->MODER &= ~(GPIO_MODER_MODE9|GPIO_MODER_MODE10);
 800f09c:	f04f 4390 	mov.w	r3, #1207959552	; 0x48000000
 800f0a0:	681a      	ldr	r2, [r3, #0]
 800f0a2:	f422 1270 	bic.w	r2, r2, #3932160	; 0x3c0000
 800f0a6:	601a      	str	r2, [r3, #0]
			GPIOA->MODER |= (GPIO_MODER_MODE9_1|GPIO_MODER_MODE10_1);
 800f0a8:	681a      	ldr	r2, [r3, #0]
 800f0aa:	f442 1220 	orr.w	r2, r2, #2621440	; 0x280000
 800f0ae:	601a      	str	r2, [r3, #0]
			GPIOA->AFR[1] &= ~(GPIO_AFRH_AFSEL9|GPIO_AFRH_AFSEL10);
 800f0b0:	6a5a      	ldr	r2, [r3, #36]	; 0x24
 800f0b2:	f422 627f 	bic.w	r2, r2, #4080	; 0xff0
 800f0b6:	625a      	str	r2, [r3, #36]	; 0x24
			GPIOA->AFR[1] |= ((GPIO_AFRH_AFSEL9_0 | GPIO_AFRH_AFSEL9_1 | GPIO_AFRH_AFSEL9_2)
 800f0b8:	6a5a      	ldr	r2, [r3, #36]	; 0x24
 800f0ba:	f442 62ee 	orr.w	r2, r2, #1904	; 0x770
 800f0be:	625a      	str	r2, [r3, #36]	; 0x24
		break;
 800f0c0:	e7ab      	b.n	800f01a <uart_init+0x1a>
			RCC->APB1ENR1 |= RCC_APB1ENR1_USART2EN;
 800f0c2:	4b20      	ldr	r3, [pc, #128]	; (800f144 <uart_init+0x144>)
 800f0c4:	6d9a      	ldr	r2, [r3, #88]	; 0x58
 800f0c6:	f442 3200 	orr.w	r2, r2, #131072	; 0x20000
 800f0ca:	659a      	str	r2, [r3, #88]	; 0x58
			RCC->AHB2ENR |= RCC_AHB2ENR_GPIOAEN;
 800f0cc:	6cda      	ldr	r2, [r3, #76]	; 0x4c
 800f0ce:	f042 0201 	orr.w	r2, r2, #1
 800f0d2:	64da      	str	r2, [r3, #76]	; 0x4c
			GPIOA->MODER &= ~(GPIO_MODER_MODE2|GPIO_MODER_MODE3);
 800f0d4:	f04f 4390 	mov.w	r3, #1207959552	; 0x48000000
 800f0d8:	681a      	ldr	r2, [r3, #0]
 800f0da:	f022 02f0 	bic.w	r2, r2, #240	; 0xf0
 800f0de:	601a      	str	r2, [r3, #0]
			GPIOA->MODER |= (GPIO_MODER_MODE2_1|GPIO_MODER_MODE3_1);
 800f0e0:	681a      	ldr	r2, [r3, #0]
 800f0e2:	f042 02a0 	orr.w	r2, r2, #160	; 0xa0
 800f0e6:	601a      	str	r2, [r3, #0]
			GPIOA->AFR[0] &= ~(GPIO_AFRL_AFSEL2|GPIO_AFRL_AFSEL3);
 800f0e8:	6a1a      	ldr	r2, [r3, #32]
 800f0ea:	f422 427f 	bic.w	r2, r2, #65280	; 0xff00
 800f0ee:	621a      	str	r2, [r3, #32]
			GPIOA->AFR[0] |= ((GPIO_AFRL_AFSEL2_0 | GPIO_AFRL_AFSEL2_1 | GPIO_AFRL_AFSEL2_2)
 800f0f0:	6a1a      	ldr	r2, [r3, #32]
 800f0f2:	f442 42ee 	orr.w	r2, r2, #30464	; 0x7700
 800f0f6:	621a      	str	r2, [r3, #32]
		break;
 800f0f8:	e78f      	b.n	800f01a <uart_init+0x1a>
			RCC->APB1ENR1 |= RCC_APB1ENR1_USART3EN;
 800f0fa:	4b12      	ldr	r3, [pc, #72]	; (800f144 <uart_init+0x144>)
 800f0fc:	6d9a      	ldr	r2, [r3, #88]	; 0x58
 800f0fe:	f442 2280 	orr.w	r2, r2, #262144	; 0x40000
 800f102:	659a      	str	r2, [r3, #88]	; 0x58
			RCC->AHB2ENR |= RCC_AHB2ENR_GPIOCEN;
 800f104:	6cda      	ldr	r2, [r3, #76]	; 0x4c
 800f106:	f042 0204 	orr.w	r2, r2, #4
 800f10a:	64da      	str	r2, [r3, #76]	; 0x4c
			GPIOC->MODER &= ~(GPIO_MODER_MODE10|GPIO_MODER_MODE11);
 800f10c:	4b0e      	ldr	r3, [pc, #56]	; (800f148 <uart_init+0x148>)
 800f10e:	681a      	ldr	r2, [r3, #0]
 800f110:	f422 0270 	bic.w	r2, r2, #15728640	; 0xf00000
 800f114:	601a      	str	r2, [r3, #0]
			GPIOC->MODER |= (GPIO_MODER_MODE10_1|GPIO_MODER_MODE11_1);
 800f116:	681a      	ldr	r2, [r3, #0]
 800f118:	f442 0220 	orr.w	r2, r2, #10485760	; 0xa00000
 800f11c:	601a      	str	r2, [r3, #0]
			GPIOC->AFR[1] &= ~(GPIO_AFRH_AFSEL10|GPIO_AFRH_AFSEL11);
 800f11e:	6a5a      	ldr	r2, [r3, #36]	; 0x24
 800f120:	f422 427f 	bic.w	r2, r2, #65280	; 0xff00
 800f124:	625a      	str	r2, [r3, #36]	; 0x24
			GPIOC->AFR[1] |= ((GPIO_AFRH_AFSEL10_0 | GPIO_AFRH_AFSEL10_1 | GPIO_AFRH_AFSEL10_2)
 800f126:	6a5a      	ldr	r2, [r3, #36]	; 0x24
 800f128:	f442 42ee 	orr.w	r2, r2, #30464	; 0x7700
 800f12c:	625a      	str	r2, [r3, #36]	; 0x24
		break;
 800f12e:	e774      	b.n	800f01a <uart_init+0x1a>
	    usartdiv = (uint16_t)(SystemCoreClock/baud_rate);
 800f130:	4a03      	ldr	r2, [pc, #12]	; (800f140 <uart_init+0x140>)
 800f132:	6811      	ldr	r1, [r2, #0]
 800f134:	fbb1 f1f5 	udiv	r1, r1, r5
 800f138:	b289      	uxth	r1, r1
 800f13a:	e789      	b.n	800f050 <uart_init+0x50>
 800f13c:	20004028 	.word	0x20004028
 800f140:	20004000 	.word	0x20004000
 800f144:	40021000 	.word	0x40021000
 800f148:	48000800 	.word	0x48000800

0800f14c <uart_send1>:
{
 800f14c:	b538      	push	{r3, r4, r5, lr}
 800f14e:	4604      	mov	r4, r0
 800f150:	460d      	mov	r5, r1
	if(!uart_is_uartNo(uartNo))
 800f152:	f7ff ff4d 	bl	800eff0 <uart_is_uartNo>
 800f156:	4603      	mov	r3, r0
 800f158:	b1a8      	cbz	r0, 800f186 <uart_send1+0x3a>
	for (t = 0; t < 0xFBBB; t++)//查询指定次数
 800f15a:	2200      	movs	r2, #0
 800f15c:	f64f 33ba 	movw	r3, #64442	; 0xfbba
 800f160:	429a      	cmp	r2, r3
 800f162:	d80b      	bhi.n	800f17c <uart_send1+0x30>
		if ( USART_ARR[uartNo-1]->ISR & USART_ISR_TXE_Msk )
 800f164:	1e63      	subs	r3, r4, #1
 800f166:	490a      	ldr	r1, [pc, #40]	; (800f190 <uart_send1+0x44>)
 800f168:	f851 3023 	ldr.w	r3, [r1, r3, lsl #2]
 800f16c:	69d9      	ldr	r1, [r3, #28]
 800f16e:	f011 0f80 	tst.w	r1, #128	; 0x80
 800f172:	d101      	bne.n	800f178 <uart_send1+0x2c>
	for (t = 0; t < 0xFBBB; t++)//查询指定次数
 800f174:	3201      	adds	r2, #1
 800f176:	e7f1      	b.n	800f15c <uart_send1+0x10>
			USART_ARR[uartNo-1]->TDR = ch;
 800f178:	b2ad      	uxth	r5, r5
 800f17a:	851d      	strh	r5, [r3, #40]	; 0x28
	if (t >= 0xFBBB)
 800f17c:	f64f 33ba 	movw	r3, #64442	; 0xfbba
 800f180:	429a      	cmp	r2, r3
 800f182:	d802      	bhi.n	800f18a <uart_send1+0x3e>
		return 1; //成功发送
 800f184:	2301      	movs	r3, #1
}
 800f186:	4618      	mov	r0, r3
 800f188:	bd38      	pop	{r3, r4, r5, pc}
		return 0; //发送超时，发送失败
 800f18a:	2300      	movs	r3, #0
 800f18c:	e7fb      	b.n	800f186 <uart_send1+0x3a>
 800f18e:	bf00      	nop
 800f190:	20004028 	.word	0x20004028

0800f194 <uart_re1>:
{
 800f194:	b570      	push	{r4, r5, r6, lr}
 800f196:	4604      	mov	r4, r0
 800f198:	460d      	mov	r5, r1
	if(!uart_is_uartNo(uartNo))
 800f19a:	f7ff ff29 	bl	800eff0 <uart_is_uartNo>
 800f19e:	4606      	mov	r6, r0
 800f1a0:	b170      	cbz	r0, 800f1c0 <uart_re1+0x2c>
	for (t = 0; t < 0xFBBB; t++)//查询指定次数
 800f1a2:	2200      	movs	r2, #0
 800f1a4:	f64f 33ba 	movw	r3, #64442	; 0xfbba
 800f1a8:	429a      	cmp	r2, r3
 800f1aa:	d811      	bhi.n	800f1d0 <uart_re1+0x3c>
		if (USART_ARR[uartNo-1]->ISR & USART_ISR_RXNE_Msk)
 800f1ac:	1e63      	subs	r3, r4, #1
 800f1ae:	490c      	ldr	r1, [pc, #48]	; (800f1e0 <uart_re1+0x4c>)
 800f1b0:	f851 3023 	ldr.w	r3, [r1, r3, lsl #2]
 800f1b4:	69d9      	ldr	r1, [r3, #28]
 800f1b6:	f011 0f20 	tst.w	r1, #32
 800f1ba:	d105      	bne.n	800f1c8 <uart_re1+0x34>
	for (t = 0; t < 0xFBBB; t++)//查询指定次数
 800f1bc:	3201      	adds	r2, #1
 800f1be:	e7f1      	b.n	800f1a4 <uart_re1+0x10>
		*fp=0;
 800f1c0:	2300      	movs	r3, #0
 800f1c2:	702b      	strb	r3, [r5, #0]
}
 800f1c4:	4630      	mov	r0, r6
 800f1c6:	bd70      	pop	{r4, r5, r6, pc}
			dat=USART_ARR[uartNo-1]->RDR;    //获取数据,清接收中断位
 800f1c8:	8c9e      	ldrh	r6, [r3, #36]	; 0x24
 800f1ca:	b2f6      	uxtb	r6, r6
			*fp = 1;  //接收成功
 800f1cc:	2301      	movs	r3, #1
 800f1ce:	702b      	strb	r3, [r5, #0]
	if(t >= 0xFBBB)
 800f1d0:	f64f 33ba 	movw	r3, #64442	; 0xfbba
 800f1d4:	429a      	cmp	r2, r3
 800f1d6:	d9f5      	bls.n	800f1c4 <uart_re1+0x30>
		*fp = 0;    //未收到数据
 800f1d8:	2300      	movs	r3, #0
 800f1da:	702b      	strb	r3, [r5, #0]
		dat = 0xFF;
 800f1dc:	26ff      	movs	r6, #255	; 0xff
 800f1de:	e7f1      	b.n	800f1c4 <uart_re1+0x30>
 800f1e0:	20004028 	.word	0x20004028

0800f1e4 <uart_enable_re_int>:
{
 800f1e4:	b510      	push	{r4, lr}
 800f1e6:	4604      	mov	r4, r0
	if(!uart_is_uartNo(uartNo))
 800f1e8:	f7ff ff02 	bl	800eff0 <uart_is_uartNo>
 800f1ec:	b198      	cbz	r0, 800f216 <uart_enable_re_int+0x32>
	USART_ARR[uartNo-1]->CR1 |= USART_CR1_RXNEIE_Msk;    //开放UART接收中断
 800f1ee:	1e60      	subs	r0, r4, #1
 800f1f0:	4b09      	ldr	r3, [pc, #36]	; (800f218 <uart_enable_re_int+0x34>)
 800f1f2:	f853 2020 	ldr.w	r2, [r3, r0, lsl #2]
 800f1f6:	6813      	ldr	r3, [r2, #0]
 800f1f8:	f043 0320 	orr.w	r3, r3, #32
 800f1fc:	6013      	str	r3, [r2, #0]
	NVIC_EnableIRQ(table_irq_uart[uartNo-1]);    //开中断控制器IRQ中断
 800f1fe:	4b07      	ldr	r3, [pc, #28]	; (800f21c <uart_enable_re_int+0x38>)
 800f200:	561b      	ldrsb	r3, [r3, r0]
  \param [in]      IRQn  Device specific interrupt number.
  \note    IRQn must not be negative.
 */
__STATIC_INLINE void __NVIC_EnableIRQ(IRQn_Type IRQn)
{
  if ((int32_t)(IRQn) >= 0)
 800f202:	2b00      	cmp	r3, #0
 800f204:	db07      	blt.n	800f216 <uart_enable_re_int+0x32>
  {
    NVIC->ISER[(((uint32_t)IRQn) >> 5UL)] = (uint32_t)(1UL << (((uint32_t)IRQn) & 0x1FUL));
 800f206:	f003 011f 	and.w	r1, r3, #31
 800f20a:	095b      	lsrs	r3, r3, #5
 800f20c:	2201      	movs	r2, #1
 800f20e:	408a      	lsls	r2, r1
 800f210:	4903      	ldr	r1, [pc, #12]	; (800f220 <uart_enable_re_int+0x3c>)
 800f212:	f841 2023 	str.w	r2, [r1, r3, lsl #2]
}
 800f216:	bd10      	pop	{r4, pc}
 800f218:	20004028 	.word	0x20004028
 800f21c:	20004034 	.word	0x20004034
 800f220:	e000e100 	.word	0xe000e100

0800f224 <uart_get_re_int>:
{
 800f224:	b510      	push	{r4, lr}
 800f226:	4604      	mov	r4, r0
	if(!uart_is_uartNo(uartNo))
 800f228:	f7ff fee2 	bl	800eff0 <uart_is_uartNo>
 800f22c:	4603      	mov	r3, r0
 800f22e:	b170      	cbz	r0, 800f24e <uart_get_re_int+0x2a>
	if(((USART_ARR[uartNo-1]->ISR & USART_ISR_RXNE_Msk) == USART_ISR_RXNE_Msk)
 800f230:	3c01      	subs	r4, #1
 800f232:	4b09      	ldr	r3, [pc, #36]	; (800f258 <uart_get_re_int+0x34>)
 800f234:	f853 3024 	ldr.w	r3, [r3, r4, lsl #2]
 800f238:	69da      	ldr	r2, [r3, #28]
 800f23a:	f012 0f20 	tst.w	r2, #32
 800f23e:	d005      	beq.n	800f24c <uart_get_re_int+0x28>
			&& ((USART_ARR[uartNo-1]->CR1 & USART_CR1_RXNEIE_Msk) == USART_CR1_RXNEIE_Msk))
 800f240:	681b      	ldr	r3, [r3, #0]
 800f242:	f013 0f20 	tst.w	r3, #32
 800f246:	d104      	bne.n	800f252 <uart_get_re_int+0x2e>
		return 0;
 800f248:	2300      	movs	r3, #0
 800f24a:	e000      	b.n	800f24e <uart_get_re_int+0x2a>
 800f24c:	2300      	movs	r3, #0
}
 800f24e:	4618      	mov	r0, r3
 800f250:	bd10      	pop	{r4, pc}
		return 1;
 800f252:	2301      	movs	r3, #1
 800f254:	e7fb      	b.n	800f24e <uart_get_re_int+0x2a>
 800f256:	bf00      	nop
 800f258:	20004028 	.word	0x20004028

0800f25c <LCD_WR_DATA8>:
    result=1;
    while(n--) result*=m;
    return result;
}
void LCD_WR_DATA8(uint8_t da) //发送数据-8位参数
{
 800f25c:	b510      	push	{r4, lr}
 800f25e:	4604      	mov	r4, r0
     wdog_feed();
 800f260:	f7ff fd82 	bl	800ed68 <wdog_feed>
    gpio_set(LCD_DC,1);
 800f264:	2101      	movs	r1, #1
 800f266:	f240 1005 	movw	r0, #261	; 0x105
 800f26a:	f7ff fcfb 	bl	800ec64 <gpio_set>
    gpio_set(LCD_CS,0);
 800f26e:	2100      	movs	r1, #0
 800f270:	f44f 7083 	mov.w	r0, #262	; 0x106
 800f274:	f7ff fcf6 	bl	800ec64 <gpio_set>
    //	gpio_init(LCD_CS,1,0);
    spi_send1(LCD_SPI,da);
 800f278:	4621      	mov	r1, r4
 800f27a:	2001      	movs	r0, #1
 800f27c:	f7ff fe22 	bl	800eec4 <spi_send1>
    gpio_set(LCD_CS,1);
 800f280:	2101      	movs	r1, #1
 800f282:	f44f 7083 	mov.w	r0, #262	; 0x106
 800f286:	f7ff fced 	bl	800ec64 <gpio_set>
    //	gpio_init(LCD_CS,1,1);
}
 800f28a:	bd10      	pop	{r4, pc}

0800f28c <LCD_WR_DATA>:
void LCD_WR_DATA(uint16_t da)
{
 800f28c:	b510      	push	{r4, lr}
 800f28e:	4604      	mov	r4, r0
     wdog_feed();
 800f290:	f7ff fd6a 	bl	800ed68 <wdog_feed>
    gpio_set(LCD_DC,1);
 800f294:	2101      	movs	r1, #1
 800f296:	f240 1005 	movw	r0, #261	; 0x105
 800f29a:	f7ff fce3 	bl	800ec64 <gpio_set>
    gpio_set(LCD_CS,0);
 800f29e:	2100      	movs	r1, #0
 800f2a0:	f44f 7083 	mov.w	r0, #262	; 0x106
 800f2a4:	f7ff fcde 	bl	800ec64 <gpio_set>
    //	gpio_init(LCD_CS,1,0);
    spi_send1(LCD_SPI,da>>8);
 800f2a8:	0a21      	lsrs	r1, r4, #8
 800f2aa:	2001      	movs	r0, #1
 800f2ac:	f7ff fe0a 	bl	800eec4 <spi_send1>
    spi_send1(LCD_SPI,da);
 800f2b0:	b2e1      	uxtb	r1, r4
 800f2b2:	2001      	movs	r0, #1
 800f2b4:	f7ff fe06 	bl	800eec4 <spi_send1>
    gpio_set(LCD_CS,1);
 800f2b8:	2101      	movs	r1, #1
 800f2ba:	f44f 7083 	mov.w	r0, #262	; 0x106
 800f2be:	f7ff fcd1 	bl	800ec64 <gpio_set>
    //    gpio_init(LCD_CS,1,1);
}
 800f2c2:	bd10      	pop	{r4, pc}

0800f2c4 <LCD_WR_REG>:
void LCD_WR_REG(uint8_t da)
{
 800f2c4:	b510      	push	{r4, lr}
 800f2c6:	4604      	mov	r4, r0
     wdog_feed();
 800f2c8:	f7ff fd4e 	bl	800ed68 <wdog_feed>
    gpio_set(LCD_DC,0);
 800f2cc:	2100      	movs	r1, #0
 800f2ce:	f240 1005 	movw	r0, #261	; 0x105
 800f2d2:	f7ff fcc7 	bl	800ec64 <gpio_set>
    gpio_set(LCD_CS,0);
 800f2d6:	2100      	movs	r1, #0
 800f2d8:	f44f 7083 	mov.w	r0, #262	; 0x106
 800f2dc:	f7ff fcc2 	bl	800ec64 <gpio_set>
    //	gpio_init(LCD_CS,1,0);
    spi_send1(LCD_SPI,da);
 800f2e0:	4621      	mov	r1, r4
 800f2e2:	2001      	movs	r0, #1
 800f2e4:	f7ff fdee 	bl	800eec4 <spi_send1>
    //	gpio_init(LCD_CS,1,1);
    gpio_set(LCD_CS,1);
 800f2e8:	2101      	movs	r1, #1
 800f2ea:	f44f 7083 	mov.w	r0, #262	; 0x106
 800f2ee:	f7ff fcb9 	bl	800ec64 <gpio_set>
}
 800f2f2:	bd10      	pop	{r4, pc}

0800f2f4 <LCD_WR_REG_DATA>:
//void LCD_WR_REG_DATA(uint16_t reg,uint16_t da)
void LCD_WR_REG_DATA(uint8_t reg,uint16_t da)
{
 800f2f4:	b510      	push	{r4, lr}
 800f2f6:	460c      	mov	r4, r1
    LCD_WR_REG(reg);
 800f2f8:	f7ff ffe4 	bl	800f2c4 <LCD_WR_REG>
    LCD_WR_DATA(da);
 800f2fc:	4620      	mov	r0, r4
 800f2fe:	f7ff ffc5 	bl	800f28c <LCD_WR_DATA>
}
 800f302:	bd10      	pop	{r4, pc}

0800f304 <Address_set>:
void Address_set(uint16_t x1,uint16_t y1,uint16_t x2,uint16_t y2)
{
 800f304:	b5f8      	push	{r3, r4, r5, r6, r7, lr}
 800f306:	4607      	mov	r7, r0
 800f308:	460d      	mov	r5, r1
 800f30a:	4616      	mov	r6, r2
 800f30c:	461c      	mov	r4, r3
    LCD_WR_REG(0x2a);      //写行地址命令
 800f30e:	202a      	movs	r0, #42	; 0x2a
 800f310:	f7ff ffd8 	bl	800f2c4 <LCD_WR_REG>
    LCD_WR_DATA8(x1>>8);   //写起始行地址
 800f314:	0a38      	lsrs	r0, r7, #8
 800f316:	f7ff ffa1 	bl	800f25c <LCD_WR_DATA8>
    LCD_WR_DATA8(x1);
 800f31a:	b2f8      	uxtb	r0, r7
 800f31c:	f7ff ff9e 	bl	800f25c <LCD_WR_DATA8>
    LCD_WR_DATA8(x2>>8);   //写结束行地址
 800f320:	0a30      	lsrs	r0, r6, #8
 800f322:	f7ff ff9b 	bl	800f25c <LCD_WR_DATA8>
    LCD_WR_DATA8(x2);
 800f326:	b2f0      	uxtb	r0, r6
 800f328:	f7ff ff98 	bl	800f25c <LCD_WR_DATA8>
    
    LCD_WR_REG(0x2b);     //写列地址命令
 800f32c:	202b      	movs	r0, #43	; 0x2b
 800f32e:	f7ff ffc9 	bl	800f2c4 <LCD_WR_REG>
    LCD_WR_DATA8(y1>>8);  //写列起始地址
 800f332:	0a28      	lsrs	r0, r5, #8
 800f334:	f7ff ff92 	bl	800f25c <LCD_WR_DATA8>
    LCD_WR_DATA8(y1);
 800f338:	b2e8      	uxtb	r0, r5
 800f33a:	f7ff ff8f 	bl	800f25c <LCD_WR_DATA8>
    LCD_WR_DATA8(y2>>8);  //写结束列地址
 800f33e:	0a20      	lsrs	r0, r4, #8
 800f340:	f7ff ff8c 	bl	800f25c <LCD_WR_DATA8>
    LCD_WR_DATA8(y2);
 800f344:	b2e0      	uxtb	r0, r4
 800f346:	f7ff ff89 	bl	800f25c <LCD_WR_DATA8>
    
    LCD_WR_REG(0x2C);     //写存储器命令
 800f34a:	202c      	movs	r0, #44	; 0x2c
 800f34c:	f7ff ffba 	bl	800f2c4 <LCD_WR_REG>
}
 800f350:	bdf8      	pop	{r3, r4, r5, r6, r7, pc}

0800f352 <LCD_Clear>:
{
 800f352:	b570      	push	{r4, r5, r6, lr}
 800f354:	4605      	mov	r5, r0
    Address_set(0,0,LCD_W-1,LCD_H-1);
 800f356:	f240 133f 	movw	r3, #319	; 0x13f
 800f35a:	22ef      	movs	r2, #239	; 0xef
 800f35c:	2100      	movs	r1, #0
 800f35e:	4608      	mov	r0, r1
 800f360:	f7ff ffd0 	bl	800f304 <Address_set>
    for(i=0;i<LCD_W;i++)
 800f364:	2600      	movs	r6, #0
 800f366:	e009      	b.n	800f37c <LCD_Clear+0x2a>
        for (j=0;j<LCD_H;j++) LCD_WR_DATA(background);
 800f368:	4628      	mov	r0, r5
 800f36a:	f7ff ff8f 	bl	800f28c <LCD_WR_DATA>
 800f36e:	3401      	adds	r4, #1
 800f370:	b2a4      	uxth	r4, r4
 800f372:	f5b4 7fa0 	cmp.w	r4, #320	; 0x140
 800f376:	d3f7      	bcc.n	800f368 <LCD_Clear+0x16>
    for(i=0;i<LCD_W;i++)
 800f378:	3601      	adds	r6, #1
 800f37a:	b2b6      	uxth	r6, r6
 800f37c:	2eef      	cmp	r6, #239	; 0xef
 800f37e:	d801      	bhi.n	800f384 <LCD_Clear+0x32>
        for (j=0;j<LCD_H;j++) LCD_WR_DATA(background);
 800f380:	2400      	movs	r4, #0
 800f382:	e7f6      	b.n	800f372 <LCD_Clear+0x20>
}
 800f384:	bd70      	pop	{r4, r5, r6, pc}

0800f386 <LCD_DrawPoint>:
{
 800f386:	b510      	push	{r4, lr}
 800f388:	4614      	mov	r4, r2
    Address_set(x,y,x,y);//设置光标位置
 800f38a:	460b      	mov	r3, r1
 800f38c:	4602      	mov	r2, r0
 800f38e:	f7ff ffb9 	bl	800f304 <Address_set>
    LCD_WR_DATA(color);
 800f392:	4620      	mov	r0, r4
 800f394:	f7ff ff7a 	bl	800f28c <LCD_WR_DATA>
}
 800f398:	bd10      	pop	{r4, pc}

0800f39a <LCD_DrawLine>:
{
 800f39a:	e92d 4ff0 	stmdb	sp!, {r4, r5, r6, r7, r8, r9, sl, fp, lr}
 800f39e:	b085      	sub	sp, #20
 800f3a0:	f8bd 4038 	ldrh.w	r4, [sp, #56]	; 0x38
 800f3a4:	9401      	str	r4, [sp, #4]
    delta_x=x2-x1; //计算坐标增量
 800f3a6:	4682      	mov	sl, r0
 800f3a8:	eba2 0800 	sub.w	r8, r2, r0
    delta_y=y2-y1;
 800f3ac:	468b      	mov	fp, r1
 800f3ae:	eba3 0901 	sub.w	r9, r3, r1
    if(delta_x>0)incx=1; //设置单步方向
 800f3b2:	f1b8 0f00 	cmp.w	r8, #0
 800f3b6:	dd0d      	ble.n	800f3d4 <LCD_DrawLine+0x3a>
 800f3b8:	2301      	movs	r3, #1
 800f3ba:	9302      	str	r3, [sp, #8]
    if(delta_y>0)incy=1;
 800f3bc:	f1b9 0f00 	cmp.w	r9, #0
 800f3c0:	dd14      	ble.n	800f3ec <LCD_DrawLine+0x52>
 800f3c2:	2301      	movs	r3, #1
 800f3c4:	9303      	str	r3, [sp, #12]
    if( delta_x>delta_y)distance=delta_x; //选取基本增量坐标轴
 800f3c6:	45c8      	cmp	r8, r9
 800f3c8:	dd1c      	ble.n	800f404 <LCD_DrawLine+0x6a>
 800f3ca:	4646      	mov	r6, r8
    int xerr=0,yerr=0,delta_x,delta_y,distance;
 800f3cc:	2500      	movs	r5, #0
 800f3ce:	462f      	mov	r7, r5
    for(t=0;t<=distance+1;t++ )//画线输出
 800f3d0:	462c      	mov	r4, r5
 800f3d2:	e01b      	b.n	800f40c <LCD_DrawLine+0x72>
    else if(delta_x==0)incx=0;//垂直线
 800f3d4:	f1b8 0f00 	cmp.w	r8, #0
 800f3d8:	d005      	beq.n	800f3e6 <LCD_DrawLine+0x4c>
    else {incx=-1;delta_x=-delta_x;}
 800f3da:	f1c8 0800 	rsb	r8, r8, #0
 800f3de:	f04f 33ff 	mov.w	r3, #4294967295
 800f3e2:	9302      	str	r3, [sp, #8]
 800f3e4:	e7ea      	b.n	800f3bc <LCD_DrawLine+0x22>
    else if(delta_x==0)incx=0;//垂直线
 800f3e6:	f8cd 8008 	str.w	r8, [sp, #8]
 800f3ea:	e7e7      	b.n	800f3bc <LCD_DrawLine+0x22>
    else if(delta_y==0)incy=0;//水平线
 800f3ec:	f1b9 0f00 	cmp.w	r9, #0
 800f3f0:	d005      	beq.n	800f3fe <LCD_DrawLine+0x64>
    else{incy=-1;delta_y=-delta_y;}
 800f3f2:	f1c9 0900 	rsb	r9, r9, #0
 800f3f6:	f04f 33ff 	mov.w	r3, #4294967295
 800f3fa:	9303      	str	r3, [sp, #12]
 800f3fc:	e7e3      	b.n	800f3c6 <LCD_DrawLine+0x2c>
    else if(delta_y==0)incy=0;//水平线
 800f3fe:	f8cd 900c 	str.w	r9, [sp, #12]
 800f402:	e7e0      	b.n	800f3c6 <LCD_DrawLine+0x2c>
    else distance=delta_y;
 800f404:	464e      	mov	r6, r9
 800f406:	e7e1      	b.n	800f3cc <LCD_DrawLine+0x32>
    for(t=0;t<=distance+1;t++ )//画线输出
 800f408:	3401      	adds	r4, #1
 800f40a:	b2a4      	uxth	r4, r4
 800f40c:	1c73      	adds	r3, r6, #1
 800f40e:	429c      	cmp	r4, r3
 800f410:	dc13      	bgt.n	800f43a <LCD_DrawLine+0xa0>
        LCD_DrawPoint(uRow,uCol,color);//画点
 800f412:	9a01      	ldr	r2, [sp, #4]
 800f414:	fa1f f18b 	uxth.w	r1, fp
 800f418:	fa1f f08a 	uxth.w	r0, sl
 800f41c:	f7ff ffb3 	bl	800f386 <LCD_DrawPoint>
        xerr+=delta_x ;
 800f420:	4447      	add	r7, r8
        yerr+=delta_y ;
 800f422:	444d      	add	r5, r9
        if(xerr>distance)
 800f424:	42be      	cmp	r6, r7
 800f426:	da02      	bge.n	800f42e <LCD_DrawLine+0x94>
            xerr-=distance;
 800f428:	1bbf      	subs	r7, r7, r6
            uRow+=incx;
 800f42a:	9b02      	ldr	r3, [sp, #8]
 800f42c:	449a      	add	sl, r3
        if(yerr>distance)
 800f42e:	42ae      	cmp	r6, r5
 800f430:	daea      	bge.n	800f408 <LCD_DrawLine+0x6e>
            yerr-=distance;
 800f432:	1bad      	subs	r5, r5, r6
            uCol+=incy;
 800f434:	9b03      	ldr	r3, [sp, #12]
 800f436:	449b      	add	fp, r3
 800f438:	e7e6      	b.n	800f408 <LCD_DrawLine+0x6e>
}
 800f43a:	b005      	add	sp, #20
 800f43c:	e8bd 8ff0 	ldmia.w	sp!, {r4, r5, r6, r7, r8, r9, sl, fp, pc}

0800f440 <LCD_ShowString>:
{
 800f440:	e92d 4ff0 	stmdb	sp!, {r4, r5, r6, r7, r8, r9, sl, fp, lr}
 800f444:	b083      	sub	sp, #12
 800f446:	9001      	str	r0, [sp, #4]
 800f448:	468b      	mov	fp, r1
 800f44a:	4690      	mov	r8, r2
 800f44c:	461f      	mov	r7, r3
 800f44e:	f8dd 9030 	ldr.w	r9, [sp, #48]	; 0x30
    k = 0;
 800f452:	f04f 0a00 	mov.w	sl, #0
    while(*p != 0)
 800f456:	e034      	b.n	800f4c2 <LCD_ShowString+0x82>
            Address_set(x+8*k,y,x+7+8*k,y+15); //设置区域
 800f458:	9b01      	ldr	r3, [sp, #4]
 800f45a:	eb03 00ca 	add.w	r0, r3, sl, lsl #3
 800f45e:	b280      	uxth	r0, r0
 800f460:	f10b 030f 	add.w	r3, fp, #15
 800f464:	1dc2      	adds	r2, r0, #7
 800f466:	b29b      	uxth	r3, r3
 800f468:	b292      	uxth	r2, r2
 800f46a:	4659      	mov	r1, fp
 800f46c:	f7ff ff4a 	bl	800f304 <Address_set>
            temp+=(*p-0x20)*16;
 800f470:	f899 3000 	ldrb.w	r3, [r9]
 800f474:	3b20      	subs	r3, #32
 800f476:	4d1d      	ldr	r5, [pc, #116]	; (800f4ec <LCD_ShowString+0xac>)
 800f478:	eb05 1503 	add.w	r5, r5, r3, lsl #4
            for(j=0;j<16;j++)
 800f47c:	2600      	movs	r6, #0
 800f47e:	e012      	b.n	800f4a6 <LCD_ShowString+0x66>
                        LCD_WR_DATA(groundbackcolor);
 800f480:	4638      	mov	r0, r7
 800f482:	f7ff ff03 	bl	800f28c <LCD_WR_DATA>
                for(i=0;i<8;i++)
 800f486:	3401      	adds	r4, #1
 800f488:	b2e4      	uxtb	r4, r4
 800f48a:	2c07      	cmp	r4, #7
 800f48c:	d808      	bhi.n	800f4a0 <LCD_ShowString+0x60>
                    if((*temp&(1<<i))!=0)
 800f48e:	782b      	ldrb	r3, [r5, #0]
 800f490:	4123      	asrs	r3, r4
 800f492:	f013 0f01 	tst.w	r3, #1
 800f496:	d0f3      	beq.n	800f480 <LCD_ShowString+0x40>
                        LCD_WR_DATA(fontcolor);
 800f498:	4640      	mov	r0, r8
 800f49a:	f7ff fef7 	bl	800f28c <LCD_WR_DATA>
 800f49e:	e7f2      	b.n	800f486 <LCD_ShowString+0x46>
                temp++;
 800f4a0:	3501      	adds	r5, #1
            for(j=0;j<16;j++)
 800f4a2:	3601      	adds	r6, #1
 800f4a4:	b2f6      	uxtb	r6, r6
 800f4a6:	2e0f      	cmp	r6, #15
 800f4a8:	d801      	bhi.n	800f4ae <LCD_ShowString+0x6e>
                for(i=0;i<8;i++)
 800f4aa:	2400      	movs	r4, #0
 800f4ac:	e7ed      	b.n	800f48a <LCD_ShowString+0x4a>
            k++;
 800f4ae:	f10a 0a01 	add.w	sl, sl, #1
 800f4b2:	fa5f fa8a 	uxtb.w	sl, sl
        p++;
 800f4b6:	f109 0901 	add.w	r9, r9, #1
        if (k>=30) break;
 800f4ba:	f1ba 0f1d 	cmp.w	sl, #29
 800f4be:	d812      	bhi.n	800f4e6 <LCD_ShowString+0xa6>
        ENABLE_INTERRUPTS;
 800f4c0:	b662      	cpsie	i
    while(*p != 0)
 800f4c2:	f899 3000 	ldrb.w	r3, [r9]
 800f4c6:	b173      	cbz	r3, 800f4e6 <LCD_ShowString+0xa6>
        DISABLE_INTERRUPTS;
 800f4c8:	b672      	cpsid	i
        if(*p>=0x20 && *p<=0x7e)
 800f4ca:	f899 2000 	ldrb.w	r2, [r9]
 800f4ce:	f1a2 0320 	sub.w	r3, r2, #32
 800f4d2:	b2db      	uxtb	r3, r3
 800f4d4:	2b5e      	cmp	r3, #94	; 0x5e
 800f4d6:	d9bf      	bls.n	800f458 <LCD_ShowString+0x18>
        else if(*p > 0x7e)
 800f4d8:	2a7e      	cmp	r2, #126	; 0x7e
 800f4da:	d9ec      	bls.n	800f4b6 <LCD_ShowString+0x76>
            k++;
 800f4dc:	f10a 0a01 	add.w	sl, sl, #1
 800f4e0:	fa5f fa8a 	uxtb.w	sl, sl
 800f4e4:	e7e7      	b.n	800f4b6 <LCD_ShowString+0x76>
}
 800f4e6:	b003      	add	sp, #12
 800f4e8:	e8bd 8ff0 	ldmia.w	sp!, {r4, r5, r6, r7, r8, r9, sl, fp, pc}
 800f4ec:	08010210 	.word	0x08010210

0800f4f0 <LCD_DrawSurface>:
{
 800f4f0:	e92d 43f8 	stmdb	sp!, {r3, r4, r5, r6, r7, r8, r9, lr}
 800f4f4:	4681      	mov	r9, r0
 800f4f6:	460f      	mov	r7, r1
 800f4f8:	4615      	mov	r5, r2
 800f4fa:	4698      	mov	r8, r3
 800f4fc:	f8bd 6020 	ldrh.w	r6, [sp, #32]
    Address_set(x1,y1,x2,y2);      //设置光标位置
 800f500:	f7ff ff00 	bl	800f304 <Address_set>
    for(i=y1;i<=y2;i++)
 800f504:	e008      	b.n	800f518 <LCD_DrawSurface+0x28>
        for(j=x1;j<=x2;j++)LCD_WR_DATA(color);//画点
 800f506:	4630      	mov	r0, r6
 800f508:	f7ff fec0 	bl	800f28c <LCD_WR_DATA>
 800f50c:	3401      	adds	r4, #1
 800f50e:	b2a4      	uxth	r4, r4
 800f510:	42ac      	cmp	r4, r5
 800f512:	d9f8      	bls.n	800f506 <LCD_DrawSurface+0x16>
    for(i=y1;i<=y2;i++)
 800f514:	3701      	adds	r7, #1
 800f516:	b2bf      	uxth	r7, r7
 800f518:	4547      	cmp	r7, r8
 800f51a:	d801      	bhi.n	800f520 <LCD_DrawSurface+0x30>
        for(j=x1;j<=x2;j++)LCD_WR_DATA(color);//画点
 800f51c:	464c      	mov	r4, r9
 800f51e:	e7f7      	b.n	800f510 <LCD_DrawSurface+0x20>
}
 800f520:	e8bd 83f8 	ldmia.w	sp!, {r3, r4, r5, r6, r7, r8, r9, pc}

0800f524 <LCD_aotu>:
{
 800f524:	e92d 4ff0 	stmdb	sp!, {r4, r5, r6, r7, r8, r9, sl, fp, lr}
 800f528:	b087      	sub	sp, #28
 800f52a:	4607      	mov	r7, r0
 800f52c:	9003      	str	r0, [sp, #12]
 800f52e:	4689      	mov	r9, r1
 800f530:	4616      	mov	r6, r2
 800f532:	9204      	str	r2, [sp, #16]
 800f534:	461d      	mov	r5, r3
 800f536:	9305      	str	r3, [sp, #20]
 800f538:	f89d a040 	ldrb.w	sl, [sp, #64]	; 0x40
    LCD_DrawSurface(x,y,x1,y1,color);
 800f53c:	f248 4430 	movw	r4, #33840	; 0x8430
 800f540:	9400      	str	r4, [sp, #0]
 800f542:	f7ff ffd5 	bl	800f4f0 <LCD_DrawSurface>
    LCD_DrawLine(x,y,x1,y,color);
 800f546:	2400      	movs	r4, #0
 800f548:	9400      	str	r4, [sp, #0]
 800f54a:	464b      	mov	r3, r9
 800f54c:	4632      	mov	r2, r6
 800f54e:	4649      	mov	r1, r9
 800f550:	4638      	mov	r0, r7
 800f552:	f7ff ff22 	bl	800f39a <LCD_DrawLine>
    LCD_DrawLine(x,y,x,y1,color);
 800f556:	9400      	str	r4, [sp, #0]
 800f558:	462b      	mov	r3, r5
 800f55a:	463a      	mov	r2, r7
 800f55c:	4649      	mov	r1, r9
 800f55e:	4638      	mov	r0, r7
 800f560:	f7ff ff1b 	bl	800f39a <LCD_DrawLine>
    LCD_DrawLine(x1,y,x1,y1,color);
 800f564:	9400      	str	r4, [sp, #0]
 800f566:	462b      	mov	r3, r5
 800f568:	4632      	mov	r2, r6
 800f56a:	4649      	mov	r1, r9
 800f56c:	4630      	mov	r0, r6
 800f56e:	f7ff ff14 	bl	800f39a <LCD_DrawLine>
    LCD_DrawLine(x,y1,x1,y1,color);
 800f572:	9400      	str	r4, [sp, #0]
 800f574:	462b      	mov	r3, r5
 800f576:	4632      	mov	r2, r6
 800f578:	4629      	mov	r1, r5
 800f57a:	4638      	mov	r0, r7
 800f57c:	f7ff ff0d 	bl	800f39a <LCD_DrawLine>
    for(i=1;i<n;i++)
 800f580:	2501      	movs	r5, #1
 800f582:	2d01      	cmp	r5, #1
 800f584:	d902      	bls.n	800f58c <LCD_aotu+0x68>
};
 800f586:	b007      	add	sp, #28
 800f588:	e8bd 8ff0 	ldmia.w	sp!, {r4, r5, r6, r7, r8, r9, sl, fp, pc}
        color=(s==0?BLACK:WHITE);  //
 800f58c:	f1ba 0f00 	cmp.w	sl, #0
 800f590:	d137      	bne.n	800f602 <LCD_aotu+0xde>
 800f592:	f04f 0b00 	mov.w	fp, #0
        LCD_DrawLine(x+i,y+i,x1-i,y+i,color);
 800f596:	b2ac      	uxth	r4, r5
 800f598:	9b03      	ldr	r3, [sp, #12]
 800f59a:	18e6      	adds	r6, r4, r3
 800f59c:	b2b6      	uxth	r6, r6
 800f59e:	eb04 0809 	add.w	r8, r4, r9
 800f5a2:	fa1f f888 	uxth.w	r8, r8
 800f5a6:	9b04      	ldr	r3, [sp, #16]
 800f5a8:	1b1f      	subs	r7, r3, r4
 800f5aa:	b2bf      	uxth	r7, r7
 800f5ac:	f8cd b000 	str.w	fp, [sp]
 800f5b0:	4643      	mov	r3, r8
 800f5b2:	463a      	mov	r2, r7
 800f5b4:	4641      	mov	r1, r8
 800f5b6:	4630      	mov	r0, r6
 800f5b8:	f7ff feef 	bl	800f39a <LCD_DrawLine>
        LCD_DrawLine(x+i,y+i,x+i,y1-i,color);
 800f5bc:	9b05      	ldr	r3, [sp, #20]
 800f5be:	1b1c      	subs	r4, r3, r4
 800f5c0:	b2a4      	uxth	r4, r4
 800f5c2:	f8cd b000 	str.w	fp, [sp]
 800f5c6:	4623      	mov	r3, r4
 800f5c8:	4632      	mov	r2, r6
 800f5ca:	4641      	mov	r1, r8
 800f5cc:	4630      	mov	r0, r6
 800f5ce:	f7ff fee4 	bl	800f39a <LCD_DrawLine>
        color=(s==0?WHITE:BLACK);
 800f5d2:	f1ba 0f00 	cmp.w	sl, #0
 800f5d6:	d117      	bne.n	800f608 <LCD_aotu+0xe4>
 800f5d8:	f64f 7bff 	movw	fp, #65535	; 0xffff
        LCD_DrawLine(x1-i,y+i,x1-i,y1-i,color);
 800f5dc:	f8cd b000 	str.w	fp, [sp]
 800f5e0:	4623      	mov	r3, r4
 800f5e2:	463a      	mov	r2, r7
 800f5e4:	4641      	mov	r1, r8
 800f5e6:	4638      	mov	r0, r7
 800f5e8:	f7ff fed7 	bl	800f39a <LCD_DrawLine>
        LCD_DrawLine(x+i,y1-i,x1-i,y1-i,color);
 800f5ec:	f8cd b000 	str.w	fp, [sp]
 800f5f0:	4623      	mov	r3, r4
 800f5f2:	463a      	mov	r2, r7
 800f5f4:	4621      	mov	r1, r4
 800f5f6:	4630      	mov	r0, r6
 800f5f8:	f7ff fecf 	bl	800f39a <LCD_DrawLine>
    for(i=1;i<n;i++)
 800f5fc:	3501      	adds	r5, #1
 800f5fe:	b2ed      	uxtb	r5, r5
 800f600:	e7bf      	b.n	800f582 <LCD_aotu+0x5e>
        color=(s==0?BLACK:WHITE);  //
 800f602:	f64f 7bff 	movw	fp, #65535	; 0xffff
 800f606:	e7c6      	b.n	800f596 <LCD_aotu+0x72>
        color=(s==0?WHITE:BLACK);
 800f608:	f04f 0b00 	mov.w	fp, #0
 800f60c:	e7e6      	b.n	800f5dc <LCD_aotu+0xb8>

0800f60e <LCD_Dly_ms>:
//功能概要：延时 - 毫秒级
//======================================================================

void LCD_Dly_ms(uint32_t ms)
{
   for (uint32_t ys=0;ys<(6000*ms);ys++) __asm("nop");
 800f60e:	2200      	movs	r2, #0
 800f610:	e001      	b.n	800f616 <LCD_Dly_ms+0x8>
 800f612:	bf00      	nop
 800f614:	3201      	adds	r2, #1
 800f616:	f241 7370 	movw	r3, #6000	; 0x1770
 800f61a:	fb03 f300 	mul.w	r3, r3, r0
 800f61e:	4293      	cmp	r3, r2
 800f620:	d8f7      	bhi.n	800f612 <LCD_Dly_ms+0x4>
}
 800f622:	4770      	bx	lr

0800f624 <LCD_Init>:
{
 800f624:	b510      	push	{r4, lr}
 800f626:	b082      	sub	sp, #8
	spi_init(LCD_SPI,1,20000,0,0);
 800f628:	2400      	movs	r4, #0
 800f62a:	9400      	str	r4, [sp, #0]
 800f62c:	4623      	mov	r3, r4
 800f62e:	f644 6220 	movw	r2, #20000	; 0x4e20
 800f632:	2101      	movs	r1, #1
 800f634:	4608      	mov	r0, r1
 800f636:	f7ff fb9f 	bl	800ed78 <spi_init>
    gpio_init(LCD_RS,1,0);
 800f63a:	4622      	mov	r2, r4
 800f63c:	2101      	movs	r1, #1
 800f63e:	f44f 7082 	mov.w	r0, #260	; 0x104
 800f642:	f7ff fb35 	bl	800ecb0 <gpio_init>
    gpio_init(LCD_DC,1,0);
 800f646:	4622      	mov	r2, r4
 800f648:	2101      	movs	r1, #1
 800f64a:	f240 1005 	movw	r0, #261	; 0x105
 800f64e:	f7ff fb2f 	bl	800ecb0 <gpio_init>
    gpio_init(LCD_CS,1,1);
 800f652:	2201      	movs	r2, #1
 800f654:	4611      	mov	r1, r2
 800f656:	f44f 7083 	mov.w	r0, #262	; 0x106
 800f65a:	f7ff fb29 	bl	800ecb0 <gpio_init>
    LCD_WR_REG_DATA(0,0);
 800f65e:	4621      	mov	r1, r4
 800f660:	4620      	mov	r0, r4
 800f662:	f7ff fe47 	bl	800f2f4 <LCD_WR_REG_DATA>
    gpio_set(LCD_RS,0);
 800f666:	4621      	mov	r1, r4
 800f668:	f44f 7082 	mov.w	r0, #260	; 0x104
 800f66c:	f7ff fafa 	bl	800ec64 <gpio_set>
	LCD_Dly_ms(100);
 800f670:	2064      	movs	r0, #100	; 0x64
 800f672:	f7ff ffcc 	bl	800f60e <LCD_Dly_ms>
    gpio_set(LCD_RS,1);
 800f676:	2101      	movs	r1, #1
 800f678:	f44f 7082 	mov.w	r0, #260	; 0x104
 800f67c:	f7ff faf2 	bl	800ec64 <gpio_set>
	LCD_Dly_ms(100);
 800f680:	2064      	movs	r0, #100	; 0x64
 800f682:	f7ff ffc4 	bl	800f60e <LCD_Dly_ms>
    LCD_WR_REG(0x36);    //存储器访问控制，显示屏正向显示写0x00/0x08,显示器反向显示写0xD0/0xD8
 800f686:	2036      	movs	r0, #54	; 0x36
 800f688:	f7ff fe1c 	bl	800f2c4 <LCD_WR_REG>
    LCD_WR_DATA8(0x00);  //0x00：ST7789V（新LCD）正常，ILI9341V红蓝颠倒
 800f68c:	4620      	mov	r0, r4
 800f68e:	f7ff fde5 	bl	800f25c <LCD_WR_DATA8>
    LCD_WR_REG(0xB6);    //显示功能控制
 800f692:	20b6      	movs	r0, #182	; 0xb6
 800f694:	f7ff fe16 	bl	800f2c4 <LCD_WR_REG>
    LCD_WR_DATA8(0x0A);
 800f698:	200a      	movs	r0, #10
 800f69a:	f7ff fddf 	bl	800f25c <LCD_WR_DATA8>
    LCD_WR_DATA8(0xA2);
 800f69e:	20a2      	movs	r0, #162	; 0xa2
 800f6a0:	f7ff fddc 	bl	800f25c <LCD_WR_DATA8>
    LCD_WR_REG(0x3a);  //定义RGB图像数据格式
 800f6a4:	203a      	movs	r0, #58	; 0x3a
 800f6a6:	f7ff fe0d 	bl	800f2c4 <LCD_WR_REG>
    LCD_WR_DATA8(0x05);//16位/像素
 800f6aa:	2005      	movs	r0, #5
 800f6ac:	f7ff fdd6 	bl	800f25c <LCD_WR_DATA8>
    LCD_WR_REG(0x11);     //退出睡眠模式
 800f6b0:	2011      	movs	r0, #17
 800f6b2:	f7ff fe07 	bl	800f2c4 <LCD_WR_REG>
	LCD_Dly_ms(800);     
 800f6b6:	f44f 7048 	mov.w	r0, #800	; 0x320
 800f6ba:	f7ff ffa8 	bl	800f60e <LCD_Dly_ms>
    LCD_Clear(WHITE);
 800f6be:	f64f 70ff 	movw	r0, #65535	; 0xffff
 800f6c2:	f7ff fe46 	bl	800f352 <LCD_Clear>
    LCD_WR_REG(0x29);
 800f6c6:	2029      	movs	r0, #41	; 0x29
 800f6c8:	f7ff fdfc 	bl	800f2c4 <LCD_WR_REG>
}
 800f6cc:	b002      	add	sp, #8
 800f6ce:	bd10      	pop	{r4, pc}

0800f6d0 <useremuart_frame>:
	static uint16_t length = 1;
	uint16_t ret_val;
	
	
	//（1）若未接收到数据或者未遇到帧头，则退出并返回0  帧头长度为两个字节
	if(((index-1) == 0 && ch != 0x55))
 800f6d0:	4b0d      	ldr	r3, [pc, #52]	; (800f708 <useremuart_frame+0x38>)
 800f6d2:	881a      	ldrh	r2, [r3, #0]
 800f6d4:	2a01      	cmp	r2, #1
 800f6d6:	d00d      	beq.n	800f6f4 <useremuart_frame+0x24>
{
 800f6d8:	b410      	push	{r4}
		length = 1;
		ret_val = 0;     //接收数据错误
		goto uecom_recv_exit;
	}
	//（2）正确接收到了帧头，继续执行，将数据存入data数组
	data[(index++)-1] = ch;
 800f6da:	1c53      	adds	r3, r2, #1
 800f6dc:	b29b      	uxth	r3, r3
 800f6de:	4c0a      	ldr	r4, [pc, #40]	; (800f708 <useremuart_frame+0x38>)
 800f6e0:	8023      	strh	r3, [r4, #0]
 800f6e2:	3a01      	subs	r2, #1
 800f6e4:	5488      	strb	r0, [r1, r2]
	//printf("%d",index);
	//（3）当获取到第四个数据时，求出有效数据长度
	//判断数据是否接收完毕，接收完毕退出组帧
	if(index==11)
 800f6e6:	2b0b      	cmp	r3, #11
 800f6e8:	d00a      	beq.n	800f700 <useremuart_frame+0x30>
		length=1;

		//data[(length-1)] = 0; //令数组长度为0
		goto uecom_recv_exit;
	}
	ret_val = 0;
 800f6ea:	2300      	movs	r3, #0
	goto uecom_recv_exit;
uecom_recv_exit:
    return ret_val;
 800f6ec:	4618      	mov	r0, r3
 800f6ee:	f85d 4b04 	ldr.w	r4, [sp], #4
 800f6f2:	4770      	bx	lr
	if(((index-1) == 0 && ch != 0x55))
 800f6f4:	2855      	cmp	r0, #85	; 0x55
 800f6f6:	d0ef      	beq.n	800f6d8 <useremuart_frame+0x8>
		index = 1;
 800f6f8:	801a      	strh	r2, [r3, #0]
		ret_val = 0;     //接收数据错误
 800f6fa:	2300      	movs	r3, #0
 800f6fc:	4618      	mov	r0, r3
 800f6fe:	4770      	bx	lr
		index = 1;
 800f700:	2101      	movs	r1, #1
 800f702:	8021      	strh	r1, [r4, #0]
		goto uecom_recv_exit;
 800f704:	e7f2      	b.n	800f6ec <useremuart_frame+0x1c>
 800f706:	bf00      	nop
 800f708:	20004038 	.word	0x20004038

0800f70c <USART2_IRQHandler>:
{
 800f70c:	b500      	push	{lr}
 800f70e:	b083      	sub	sp, #12
    DISABLE_INTERRUPTS;//关总中断
 800f710:	b672      	cpsid	i
	gcRecvLen=0;     
 800f712:	4b26      	ldr	r3, [pc, #152]	; (800f7ac <USART2_IRQHandler+0xa0>)
 800f714:	2200      	movs	r2, #0
 800f716:	801a      	strh	r2, [r3, #0]
    if(!uart_get_re_int(UART_User)) goto UART_User_Handler_EXIT;
 800f718:	2002      	movs	r0, #2
 800f71a:	f7ff fd83 	bl	800f224 <uart_get_re_int>
 800f71e:	b918      	cbnz	r0, 800f728 <USART2_IRQHandler+0x1c>
    ENABLE_INTERRUPTS;
 800f720:	b662      	cpsie	i
}
 800f722:	b003      	add	sp, #12
 800f724:	f85d fb04 	ldr.w	pc, [sp], #4
    ch = uart_re1(UART_User,&flag); 
 800f728:	f10d 0107 	add.w	r1, sp, #7
 800f72c:	2002      	movs	r0, #2
 800f72e:	f7ff fd31 	bl	800f194 <uart_re1>
	if(!flag) goto UART_User_Handler_EXIT; //实际未收到数据，退出
 800f732:	f89d 3007 	ldrb.w	r3, [sp, #7]
 800f736:	2b00      	cmp	r3, #0
 800f738:	d0f2      	beq.n	800f720 <USART2_IRQHandler+0x14>
	gcRecvLen =useremuart_frame(ch,(uint8_t*)gcRecvBuf);
 800f73a:	491d      	ldr	r1, [pc, #116]	; (800f7b0 <USART2_IRQHandler+0xa4>)
 800f73c:	f7ff ffc8 	bl	800f6d0 <useremuart_frame>
 800f740:	4b1a      	ldr	r3, [pc, #104]	; (800f7ac <USART2_IRQHandler+0xa0>)
 800f742:	8018      	strh	r0, [r3, #0]
	if (gcRecvLen == 0) goto UART_User_Handler_EXIT; 
 800f744:	881b      	ldrh	r3, [r3, #0]
 800f746:	b29b      	uxth	r3, r3
 800f748:	2b00      	cmp	r3, #0
 800f74a:	d0e9      	beq.n	800f720 <USART2_IRQHandler+0x14>
	if(gcRecvLen==12)
 800f74c:	4b17      	ldr	r3, [pc, #92]	; (800f7ac <USART2_IRQHandler+0xa0>)
 800f74e:	881b      	ldrh	r3, [r3, #0]
 800f750:	b29b      	uxth	r3, r3
 800f752:	2b0c      	cmp	r3, #12
 800f754:	d00b      	beq.n	800f76e <USART2_IRQHandler+0x62>
	switch (gcRecvBuf[1])
 800f756:	4b16      	ldr	r3, [pc, #88]	; (800f7b0 <USART2_IRQHandler+0xa4>)
 800f758:	785b      	ldrb	r3, [r3, #1]
 800f75a:	2b52      	cmp	r3, #82	; 0x52
 800f75c:	d013      	beq.n	800f786 <USART2_IRQHandler+0x7a>
 800f75e:	2b53      	cmp	r3, #83	; 0x53
 800f760:	d018      	beq.n	800f794 <USART2_IRQHandler+0x88>
 800f762:	2b51      	cmp	r3, #81	; 0x51
 800f764:	d008      	beq.n	800f778 <USART2_IRQHandler+0x6c>
	gcRecvLen=0;
 800f766:	4b11      	ldr	r3, [pc, #68]	; (800f7ac <USART2_IRQHandler+0xa0>)
 800f768:	2200      	movs	r2, #0
 800f76a:	801a      	strh	r2, [r3, #0]
 800f76c:	e7d8      	b.n	800f720 <USART2_IRQHandler+0x14>
		gpio_reverse(LIGHT_BLUE);
 800f76e:	f240 1009 	movw	r0, #265	; 0x109
 800f772:	f7ff fad5 	bl	800ed20 <gpio_reverse>
 800f776:	e7ee      	b.n	800f756 <USART2_IRQHandler+0x4a>
		case 0x51: memcpy(&sacc,&gcRecvBuf[2],6);//存放X,Y,Z三轴加速度
 800f778:	4b0e      	ldr	r3, [pc, #56]	; (800f7b4 <USART2_IRQHandler+0xa8>)
 800f77a:	4a0f      	ldr	r2, [pc, #60]	; (800f7b8 <USART2_IRQHandler+0xac>)
 800f77c:	6811      	ldr	r1, [r2, #0]
 800f77e:	6019      	str	r1, [r3, #0]
 800f780:	8892      	ldrh	r2, [r2, #4]
 800f782:	809a      	strh	r2, [r3, #4]
			break;
 800f784:	e7ef      	b.n	800f766 <USART2_IRQHandler+0x5a>
		case 0x52: memcpy(&sgyro,&gcRecvBuf[2],6);//存放X,Y,Z三轴角速度
 800f786:	4b0d      	ldr	r3, [pc, #52]	; (800f7bc <USART2_IRQHandler+0xb0>)
 800f788:	4a0b      	ldr	r2, [pc, #44]	; (800f7b8 <USART2_IRQHandler+0xac>)
 800f78a:	6811      	ldr	r1, [r2, #0]
 800f78c:	6019      	str	r1, [r3, #0]
 800f78e:	8892      	ldrh	r2, [r2, #4]
 800f790:	809a      	strh	r2, [r3, #4]
			break;
 800f792:	e7e8      	b.n	800f766 <USART2_IRQHandler+0x5a>
			memcpy(&sangle,&gcRecvBuf[2],6);//存放X,Y,Z三轴角速度
 800f794:	4b0a      	ldr	r3, [pc, #40]	; (800f7c0 <USART2_IRQHandler+0xb4>)
 800f796:	4a08      	ldr	r2, [pc, #32]	; (800f7b8 <USART2_IRQHandler+0xac>)
 800f798:	6811      	ldr	r1, [r2, #0]
 800f79a:	6019      	str	r1, [r3, #0]
 800f79c:	8892      	ldrh	r2, [r2, #4]
 800f79e:	809a      	strh	r2, [r3, #4]
			gpio_reverse(LIGHT_RED);
 800f7a0:	f240 1007 	movw	r0, #263	; 0x107
 800f7a4:	f7ff fabc 	bl	800ed20 <gpio_reverse>
			break;
 800f7a8:	e7dd      	b.n	800f766 <USART2_IRQHandler+0x5a>
 800f7aa:	bf00      	nop
 800f7ac:	200040b2 	.word	0x200040b2
 800f7b0:	200040e0 	.word	0x200040e0
 800f7b4:	20004064 	.word	0x20004064
 800f7b8:	200040e2 	.word	0x200040e2
 800f7bc:	200040b8 	.word	0x200040b8
 800f7c0:	200040ac 	.word	0x200040ac

0800f7c4 <printk_putc>:
//功能概要：通过串口打出一个字符
//参数说明：data:数据：通过串口发送的一字节数据
//函数返回：无
//======================================================================
static void printk_putc(int c, int *count, PRINTK_INFO *info)
{
 800f7c4:	b510      	push	{r4, lr}
 800f7c6:	460c      	mov	r4, r1
	switch (info->dest) {
 800f7c8:	6813      	ldr	r3, [r2, #0]
 800f7ca:	2b01      	cmp	r3, #1
 800f7cc:	d005      	beq.n	800f7da <printk_putc+0x16>
 800f7ce:	2b02      	cmp	r3, #2
 800f7d0:	d007      	beq.n	800f7e2 <printk_putc+0x1e>
		++(info->loc);
		break;
	default:
		break;
	}
	*count += 1;
 800f7d2:	6823      	ldr	r3, [r4, #0]
 800f7d4:	3301      	adds	r3, #1
 800f7d6:	6023      	str	r3, [r4, #0]
}
 800f7d8:	bd10      	pop	{r4, pc}
		info->func((char) c);
 800f7da:	6853      	ldr	r3, [r2, #4]
 800f7dc:	b2c0      	uxtb	r0, r0
 800f7de:	4798      	blx	r3
		break;
 800f7e0:	e7f7      	b.n	800f7d2 <printk_putc+0xe>
		*(info->loc) = (unsigned char) c;
 800f7e2:	6893      	ldr	r3, [r2, #8]
 800f7e4:	7018      	strb	r0, [r3, #0]
		++(info->loc);
 800f7e6:	6893      	ldr	r3, [r2, #8]
 800f7e8:	3301      	adds	r3, #1
 800f7ea:	6093      	str	r3, [r2, #8]
		break;
 800f7ec:	e7f1      	b.n	800f7d2 <printk_putc+0xe>

0800f7ee <printk_mknumstr>:
//       neg:有无符号:判断数据时有符号还是无符号整形
//       radix:格式选择:确定输出格式例如：十进制或十六进制...
//函数返回：无
//======================================================================
static int printk_mknumstr(char *numstr, void *nump, int neg, int radix)
{
 800f7ee:	b430      	push	{r4, r5}
	int nlen;
	char *nstrp;

	nlen = 0;
	nstrp = numstr;
	*nstrp++ = '\0';
 800f7f0:	1c44      	adds	r4, r0, #1
 800f7f2:	2500      	movs	r5, #0
 800f7f4:	7005      	strb	r5, [r0, #0]

	if (neg) {
 800f7f6:	b1b2      	cbz	r2, 800f826 <printk_mknumstr+0x38>
		a = *(int *) nump;
 800f7f8:	6809      	ldr	r1, [r1, #0]
		if (a == 0) {
 800f7fa:	b109      	cbz	r1, 800f800 <printk_mknumstr+0x12>
	nlen = 0;
 800f7fc:	2000      	movs	r0, #0
 800f7fe:	e009      	b.n	800f814 <printk_mknumstr+0x26>
			*nstrp = '0';
 800f800:	2330      	movs	r3, #48	; 0x30
 800f802:	7043      	strb	r3, [r0, #1]
			++nlen;
 800f804:	2001      	movs	r0, #1
			goto done;
 800f806:	e024      	b.n	800f852 <printk_mknumstr+0x64>
		}
		while (a != 0) {
			b = (int) a / (int) radix;
			c = (int) a - ((int) b * (int) radix);
			if (c < 0) {
				c = ~c + 1 + '0';
 800f808:	f1c1 0130 	rsb	r1, r1, #48	; 0x30
			} else {
				c = c + '0';
			}
			a = b;
			*nstrp++ = (char) c;
 800f80c:	7021      	strb	r1, [r4, #0]
			++nlen;
 800f80e:	3001      	adds	r0, #1
			*nstrp++ = (char) c;
 800f810:	3401      	adds	r4, #1
			a = b;
 800f812:	4611      	mov	r1, r2
		while (a != 0) {
 800f814:	b1e9      	cbz	r1, 800f852 <printk_mknumstr+0x64>
			b = (int) a / (int) radix;
 800f816:	fb91 f2f3 	sdiv	r2, r1, r3
 800f81a:	fb03 1112 	mls	r1, r3, r2, r1
			if (c < 0) {
 800f81e:	2900      	cmp	r1, #0
 800f820:	dbf2      	blt.n	800f808 <printk_mknumstr+0x1a>
				c = c + '0';
 800f822:	3130      	adds	r1, #48	; 0x30
 800f824:	e7f2      	b.n	800f80c <printk_mknumstr+0x1e>
 800f826:	4615      	mov	r5, r2
		}
	} else {
		ua = *(unsigned int *) nump;
 800f828:	680a      	ldr	r2, [r1, #0]
		if (ua == 0) {
 800f82a:	b942      	cbnz	r2, 800f83e <printk_mknumstr+0x50>
			*nstrp = '0';
 800f82c:	2330      	movs	r3, #48	; 0x30
 800f82e:	7043      	strb	r3, [r0, #1]
			++nlen;
 800f830:	2001      	movs	r0, #1
			goto done;
 800f832:	e00e      	b.n	800f852 <printk_mknumstr+0x64>
			ub = (unsigned int) ua / (unsigned int) radix;
			uc = (unsigned int) ua - ((unsigned int) ub * (unsigned int) radix);
			if (uc < 10) {
				uc = uc + '0';
			} else {
				uc = uc - 10 + 'A';
 800f834:	3237      	adds	r2, #55	; 0x37
			}
			ua = ub;
			*nstrp++ = (char) uc;
 800f836:	7022      	strb	r2, [r4, #0]
			++nlen;
 800f838:	3501      	adds	r5, #1
			*nstrp++ = (char) uc;
 800f83a:	3401      	adds	r4, #1
			ua = ub;
 800f83c:	460a      	mov	r2, r1
		while (ua != 0) {
 800f83e:	b13a      	cbz	r2, 800f850 <printk_mknumstr+0x62>
			ub = (unsigned int) ua / (unsigned int) radix;
 800f840:	fbb2 f1f3 	udiv	r1, r2, r3
			uc = (unsigned int) ua - ((unsigned int) ub * (unsigned int) radix);
 800f844:	fb01 2213 	mls	r2, r1, r3, r2
			if (uc < 10) {
 800f848:	2a09      	cmp	r2, #9
 800f84a:	d8f3      	bhi.n	800f834 <printk_mknumstr+0x46>
				uc = uc + '0';
 800f84c:	3230      	adds	r2, #48	; 0x30
 800f84e:	e7f2      	b.n	800f836 <printk_mknumstr+0x48>
		}
	}
	done: return nlen;
 800f850:	4628      	mov	r0, r5
}
 800f852:	bc30      	pop	{r4, r5}
 800f854:	4770      	bx	lr

0800f856 <printk_pad_zero>:
/********************************************************************/
static void printk_pad_zero(int curlen, int field_width, int *count,
		PRINTK_INFO *info) {
 800f856:	b5f8      	push	{r3, r4, r5, r6, r7, lr}
 800f858:	4604      	mov	r4, r0
 800f85a:	460d      	mov	r5, r1
 800f85c:	4617      	mov	r7, r2
 800f85e:	461e      	mov	r6, r3
	int i;

	for (i = curlen; i < field_width; i++) {
 800f860:	e005      	b.n	800f86e <printk_pad_zero+0x18>
		printk_putc('0', count, info);
 800f862:	4632      	mov	r2, r6
 800f864:	4639      	mov	r1, r7
 800f866:	2030      	movs	r0, #48	; 0x30
 800f868:	f7ff ffac 	bl	800f7c4 <printk_putc>
	for (i = curlen; i < field_width; i++) {
 800f86c:	3401      	adds	r4, #1
 800f86e:	42ac      	cmp	r4, r5
 800f870:	dbf7      	blt.n	800f862 <printk_pad_zero+0xc>
	}
}
 800f872:	bdf8      	pop	{r3, r4, r5, r6, r7, pc}

0800f874 <printk_pad_space>:

/********************************************************************/
static void printk_pad_space(int curlen, int field_width, int *count,
		PRINTK_INFO *info) {
 800f874:	b5f8      	push	{r3, r4, r5, r6, r7, lr}
 800f876:	4604      	mov	r4, r0
 800f878:	460d      	mov	r5, r1
 800f87a:	4617      	mov	r7, r2
 800f87c:	461e      	mov	r6, r3
	int i;

	for (i = curlen; i < field_width; i++) {
 800f87e:	e005      	b.n	800f88c <printk_pad_space+0x18>
		printk_putc(' ', count, info);
 800f880:	4632      	mov	r2, r6
 800f882:	4639      	mov	r1, r7
 800f884:	2020      	movs	r0, #32
 800f886:	f7ff ff9d 	bl	800f7c4 <printk_putc>
	for (i = curlen; i < field_width; i++) {
 800f88a:	3401      	adds	r4, #1
 800f88c:	42ac      	cmp	r4, r5
 800f88e:	dbf7      	blt.n	800f880 <printk_pad_space+0xc>
	}
}
 800f890:	bdf8      	pop	{r3, r4, r5, r6, r7, pc}

0800f892 <out_char>:
void out_char(char data) {
 800f892:	b508      	push	{r3, lr}
	uart_send1(UART_printf, data);
 800f894:	4601      	mov	r1, r0
 800f896:	2003      	movs	r0, #3
 800f898:	f7ff fc58 	bl	800f14c <uart_send1>
}
 800f89c:	bd08      	pop	{r3, pc}
	...

0800f8a0 <printk_mkfloatstr>:
{
 800f8a0:	e92d 4ff0 	stmdb	sp!, {r4, r5, r6, r7, r8, r9, sl, fp, lr}
 800f8a4:	b099      	sub	sp, #100	; 0x64
 800f8a6:	4604      	mov	r4, r0
 800f8a8:	4689      	mov	r9, r1
 800f8aa:	4692      	mov	sl, r2
	uint32_t p,i,j,k,a[5]={0},b[19]={0};
 800f8ac:	2100      	movs	r1, #0
 800f8ae:	9113      	str	r1, [sp, #76]	; 0x4c
 800f8b0:	9114      	str	r1, [sp, #80]	; 0x50
 800f8b2:	9115      	str	r1, [sp, #84]	; 0x54
 800f8b4:	9116      	str	r1, [sp, #88]	; 0x58
 800f8b6:	9117      	str	r1, [sp, #92]	; 0x5c
 800f8b8:	224c      	movs	r2, #76	; 0x4c
 800f8ba:	4668      	mov	r0, sp
 800f8bc:	f000 fc1d 	bl	80100fa <memset>
	p=(uint32_t)*f;//整数部分
 800f8c0:	e9d4 4500 	ldrd	r4, r5, [r4]
 800f8c4:	4620      	mov	r0, r4
 800f8c6:	4629      	mov	r1, r5
 800f8c8:	f7fe fc40 	bl	800e14c <__aeabi_d2uiz>
 800f8cc:	4680      	mov	r8, r0
	tempf=(*f-p);
 800f8ce:	f7fe f901 	bl	800dad4 <__aeabi_ui2d>
 800f8d2:	4602      	mov	r2, r0
 800f8d4:	460b      	mov	r3, r1
 800f8d6:	4620      	mov	r0, r4
 800f8d8:	4629      	mov	r1, r5
 800f8da:	f7fd ffbd 	bl	800d858 <__aeabi_dsub>
 800f8de:	4604      	mov	r4, r0
 800f8e0:	460d      	mov	r5, r1
	if(precision_width==0)
 800f8e2:	f1ba 0f00 	cmp.w	sl, #0
 800f8e6:	d118      	bne.n	800f91a <printk_mkfloatstr+0x7a>
	   q=(*f-p)*100000000000000000;    //小数部分
 800f8e8:	a35c      	add	r3, pc, #368	; (adr r3, 800fa5c <printk_mkfloatstr+0x1bc>)
 800f8ea:	e9d3 2300 	ldrd	r2, r3, [r3]
 800f8ee:	f7fe f96b 	bl	800dbc8 <__aeabi_dmul>
 800f8f2:	f7fe fcb3 	bl	800e25c <__aeabi_d2ulz>
 800f8f6:	4606      	mov	r6, r0
 800f8f8:	460f      	mov	r7, r1
	k=0;
 800f8fa:	f04f 0b00 	mov.w	fp, #0
	while(m<1&&m!=0)    //【20201119】-2/3   原为while(m<1)
 800f8fe:	e018      	b.n	800f932 <printk_mkfloatstr+0x92>
		tempf*=10;
 800f900:	2200      	movs	r2, #0
 800f902:	4b53      	ldr	r3, [pc, #332]	; (800fa50 <printk_mkfloatstr+0x1b0>)
 800f904:	f7fe f960 	bl	800dbc8 <__aeabi_dmul>
		while(precision_width--)    
 800f908:	4633      	mov	r3, r6
 800f90a:	1e5e      	subs	r6, r3, #1
 800f90c:	2b00      	cmp	r3, #0
 800f90e:	d1f7      	bne.n	800f900 <printk_mkfloatstr+0x60>
		q=tempf;
 800f910:	f7fe fca4 	bl	800e25c <__aeabi_d2ulz>
 800f914:	4606      	mov	r6, r0
 800f916:	460f      	mov	r7, r1
 800f918:	e7ef      	b.n	800f8fa <printk_mkfloatstr+0x5a>
 800f91a:	4653      	mov	r3, sl
 800f91c:	e7f5      	b.n	800f90a <printk_mkfloatstr+0x6a>
		m=m*10;
 800f91e:	2200      	movs	r2, #0
 800f920:	4b4b      	ldr	r3, [pc, #300]	; (800fa50 <printk_mkfloatstr+0x1b0>)
 800f922:	4620      	mov	r0, r4
 800f924:	4629      	mov	r1, r5
 800f926:	f7fe f94f 	bl	800dbc8 <__aeabi_dmul>
 800f92a:	4604      	mov	r4, r0
 800f92c:	460d      	mov	r5, r1
		k++;
 800f92e:	f10b 0b01 	add.w	fp, fp, #1
	while(m<1&&m!=0)    //【20201119】-2/3   原为while(m<1)
 800f932:	2200      	movs	r2, #0
 800f934:	4b47      	ldr	r3, [pc, #284]	; (800fa54 <printk_mkfloatstr+0x1b4>)
 800f936:	4620      	mov	r0, r4
 800f938:	4629      	mov	r1, r5
 800f93a:	f7fe fbb7 	bl	800e0ac <__aeabi_dcmplt>
 800f93e:	b138      	cbz	r0, 800f950 <printk_mkfloatstr+0xb0>
 800f940:	2200      	movs	r2, #0
 800f942:	2300      	movs	r3, #0
 800f944:	4620      	mov	r0, r4
 800f946:	4629      	mov	r1, r5
 800f948:	f7fe fba6 	bl	800e098 <__aeabi_dcmpeq>
 800f94c:	2800      	cmp	r0, #0
 800f94e:	d0e6      	beq.n	800f91e <printk_mkfloatstr+0x7e>
	k--;          //记录小数点后到第一位不为零的小数之前 有多少个0.
 800f950:	f10b 35ff 	add.w	r5, fp, #4294967295
	if(0==p)//整数部分为0
 800f954:	f1b8 0f00 	cmp.w	r8, #0
 800f958:	d123      	bne.n	800f9a2 <printk_mkfloatstr+0x102>
		c[i++]='0';
 800f95a:	2330      	movs	r3, #48	; 0x30
 800f95c:	f889 3000 	strb.w	r3, [r9]
 800f960:	f04f 0801 	mov.w	r8, #1
	c[i++]='.';   //小数点
 800f964:	f108 0b01 	add.w	fp, r8, #1
 800f968:	232e      	movs	r3, #46	; 0x2e
 800f96a:	f809 3008 	strb.w	r3, [r9, r8]
	if(0==q)     //小数部分为0
 800f96e:	ea56 0307 	orrs.w	r3, r6, r7
 800f972:	d02c      	beq.n	800f9ce <printk_mkfloatstr+0x12e>
		j=0;
 800f974:	2400      	movs	r4, #0
 800f976:	e04c      	b.n	800fa12 <printk_mkfloatstr+0x172>
			a[j++]=p%10;
 800f978:	4b37      	ldr	r3, [pc, #220]	; (800fa58 <printk_mkfloatstr+0x1b8>)
 800f97a:	fba3 1308 	umull	r1, r3, r3, r8
 800f97e:	08db      	lsrs	r3, r3, #3
 800f980:	4618      	mov	r0, r3
 800f982:	eb03 0383 	add.w	r3, r3, r3, lsl #2
 800f986:	0059      	lsls	r1, r3, #1
 800f988:	eba8 0301 	sub.w	r3, r8, r1
 800f98c:	a918      	add	r1, sp, #96	; 0x60
 800f98e:	eb01 0182 	add.w	r1, r1, r2, lsl #2
 800f992:	f841 3c14 	str.w	r3, [r1, #-20]
			p/=10;
 800f996:	4680      	mov	r8, r0
			a[j++]=p%10;
 800f998:	3201      	adds	r2, #1
		while(p!=0)//倒序的数字
 800f99a:	f1b8 0f00 	cmp.w	r8, #0
 800f99e:	d1eb      	bne.n	800f978 <printk_mkfloatstr+0xd8>
 800f9a0:	e00c      	b.n	800f9bc <printk_mkfloatstr+0x11c>
		j=0;
 800f9a2:	2200      	movs	r2, #0
 800f9a4:	e7f9      	b.n	800f99a <printk_mkfloatstr+0xfa>
			c[i++]=a[j-1]+'0';
 800f9a6:	3a01      	subs	r2, #1
 800f9a8:	ab18      	add	r3, sp, #96	; 0x60
 800f9aa:	eb03 0382 	add.w	r3, r3, r2, lsl #2
 800f9ae:	f853 3c14 	ldr.w	r3, [r3, #-20]
 800f9b2:	3330      	adds	r3, #48	; 0x30
 800f9b4:	f809 3008 	strb.w	r3, [r9, r8]
 800f9b8:	f108 0801 	add.w	r8, r8, #1
		while(j>0)//将倒序数字转为正序，并转换为对应的字符形式
 800f9bc:	2a00      	cmp	r2, #0
 800f9be:	d1f2      	bne.n	800f9a6 <printk_mkfloatstr+0x106>
 800f9c0:	e7d0      	b.n	800f964 <printk_mkfloatstr+0xc4>
		while(zeroNum--) c[i++]='0';     //【20201119】-3/3   原为 c[i++]='0';
 800f9c2:	2230      	movs	r2, #48	; 0x30
 800f9c4:	f809 200b 	strb.w	r2, [r9, fp]
 800f9c8:	469a      	mov	sl, r3
 800f9ca:	f10b 0b01 	add.w	fp, fp, #1
 800f9ce:	f10a 33ff 	add.w	r3, sl, #4294967295
 800f9d2:	f1ba 0f00 	cmp.w	sl, #0
 800f9d6:	d1f4      	bne.n	800f9c2 <printk_mkfloatstr+0x122>
	c[i]='\0';
 800f9d8:	2300      	movs	r3, #0
 800f9da:	f809 300b 	strb.w	r3, [r9, fp]
}
 800f9de:	4658      	mov	r0, fp
 800f9e0:	b019      	add	sp, #100	; 0x64
 800f9e2:	e8bd 8ff0 	ldmia.w	sp!, {r4, r5, r6, r7, r8, r9, sl, fp, pc}
			b[j++]=q%10;
 800f9e6:	220a      	movs	r2, #10
 800f9e8:	2300      	movs	r3, #0
 800f9ea:	4630      	mov	r0, r6
 800f9ec:	4639      	mov	r1, r7
 800f9ee:	f7fe fc1d 	bl	800e22c <__aeabi_uldivmod>
 800f9f2:	f104 0801 	add.w	r8, r4, #1
 800f9f6:	ab18      	add	r3, sp, #96	; 0x60
 800f9f8:	eb03 0484 	add.w	r4, r3, r4, lsl #2
 800f9fc:	f844 2c60 	str.w	r2, [r4, #-96]
			q/=10;
 800fa00:	220a      	movs	r2, #10
 800fa02:	2300      	movs	r3, #0
 800fa04:	4630      	mov	r0, r6
 800fa06:	4639      	mov	r1, r7
 800fa08:	f7fe fc10 	bl	800e22c <__aeabi_uldivmod>
 800fa0c:	4606      	mov	r6, r0
 800fa0e:	460f      	mov	r7, r1
			b[j++]=q%10;
 800fa10:	4644      	mov	r4, r8
		while(q!=0)//倒序的数字
 800fa12:	ea56 0307 	orrs.w	r3, r6, r7
 800fa16:	d1e6      	bne.n	800f9e6 <printk_mkfloatstr+0x146>
 800fa18:	e007      	b.n	800fa2a <printk_mkfloatstr+0x18a>
			b[j++]=0;
 800fa1a:	ab18      	add	r3, sp, #96	; 0x60
 800fa1c:	eb03 0384 	add.w	r3, r3, r4, lsl #2
 800fa20:	2200      	movs	r2, #0
 800fa22:	f843 2c60 	str.w	r2, [r3, #-96]
			k--;
 800fa26:	3d01      	subs	r5, #1
			b[j++]=0;
 800fa28:	3401      	adds	r4, #1
		while(k!=0)
 800fa2a:	2d00      	cmp	r5, #0
 800fa2c:	d1f5      	bne.n	800fa1a <printk_mkfloatstr+0x17a>
 800fa2e:	e00a      	b.n	800fa46 <printk_mkfloatstr+0x1a6>
			c[i++]=b[j-1]+'0';
 800fa30:	3c01      	subs	r4, #1
 800fa32:	ab18      	add	r3, sp, #96	; 0x60
 800fa34:	eb03 0384 	add.w	r3, r3, r4, lsl #2
 800fa38:	f853 3c60 	ldr.w	r3, [r3, #-96]
 800fa3c:	3330      	adds	r3, #48	; 0x30
 800fa3e:	f809 300b 	strb.w	r3, [r9, fp]
 800fa42:	f10b 0b01 	add.w	fp, fp, #1
		while(j>0)//将倒序数字转为正序，并转换为对应的字符形式
 800fa46:	2c00      	cmp	r4, #0
 800fa48:	d1f2      	bne.n	800fa30 <printk_mkfloatstr+0x190>
 800fa4a:	e7c5      	b.n	800f9d8 <printk_mkfloatstr+0x138>
 800fa4c:	f3af 8000 	nop.w
 800fa50:	40240000 	.word	0x40240000
 800fa54:	3ff00000 	.word	0x3ff00000
 800fa58:	cccccccd 	.word	0xcccccccd
 800fa5c:	85d8a000 	.word	0x85d8a000
 800fa60:	43763457 	.word	0x43763457

0800fa64 <printk>:
//       fmt:输出格式信息
//       ap:va_list指针指向格式信息输出
//函数返回：无
//======================================================================
int printk(PRINTK_INFO *info, const char *fmt, char * ap)
{
 800fa64:	e92d 4ff0 	stmdb	sp!, {r4, r5, r6, r7, r8, r9, sl, fp, lr}
 800fa68:	b097      	sub	sp, #92	; 0x5c
 800fa6a:	9001      	str	r0, [sp, #4]
 800fa6c:	460c      	mov	r4, r1
 800fa6e:	4691      	mov	r9, r2

	}un1;*/
	char *p;
	int c;
	//char temp1;
	char vstr[33]={'0'};
 800fa70:	2221      	movs	r2, #33	; 0x21
 800fa72:	2100      	movs	r1, #0
 800fa74:	a80d      	add	r0, sp, #52	; 0x34
 800fa76:	f000 fb40 	bl	80100fa <memset>
 800fa7a:	2330      	movs	r3, #48	; 0x30
 800fa7c:	f88d 3034 	strb.w	r3, [sp, #52]	; 0x34
	int *ivalp;
	char *sval;
	int cval;
	unsigned int uval;

	count = 0;
 800fa80:	2300      	movs	r3, #0
 800fa82:	930c      	str	r3, [sp, #48]	; 0x30
	length_modifier=0;
	precision_used=TRUE;
 800fa84:	2201      	movs	r2, #1
 800fa86:	9202      	str	r2, [sp, #8]
	length_modifier=0;
 800fa88:	469b      	mov	fp, r3
	//从格式字符串第一个字符开始格式化输出数据
	for (p = (char *) fmt; (c = *p) != 0; p++)
 800fa8a:	e00b      	b.n	800faa4 <printk+0x40>
			if (c != '\n') {
				printk_putc(c, &count, info);
			}
			//输出换行符
			else {
				printk_putc(0x0D /* CR */, &count, info);
 800fa8c:	9d01      	ldr	r5, [sp, #4]
 800fa8e:	462a      	mov	r2, r5
 800fa90:	a90c      	add	r1, sp, #48	; 0x30
 800fa92:	200d      	movs	r0, #13
 800fa94:	f7ff fe96 	bl	800f7c4 <printk_putc>
				printk_putc(0x0A /* LF */, &count, info);
 800fa98:	462a      	mov	r2, r5
 800fa9a:	a90c      	add	r1, sp, #48	; 0x30
 800fa9c:	200a      	movs	r0, #10
 800fa9e:	f7ff fe91 	bl	800f7c4 <printk_putc>
	for (p = (char *) fmt; (c = *p) != 0; p++)
 800faa2:	3401      	adds	r4, #1
 800faa4:	7820      	ldrb	r0, [r4, #0]
 800faa6:	2800      	cmp	r0, #0
 800faa8:	f000 82b2 	beq.w	8010010 <printk+0x5ac>
		if (c != '%')
 800faac:	2825      	cmp	r0, #37	; 0x25
 800faae:	d041      	beq.n	800fb34 <printk+0xd0>
			if (c != '\n') {
 800fab0:	280a      	cmp	r0, #10
 800fab2:	d0eb      	beq.n	800fa8c <printk+0x28>
				printk_putc(c, &count, info);
 800fab4:	9a01      	ldr	r2, [sp, #4]
 800fab6:	a90c      	add	r1, sp, #48	; 0x30
 800fab8:	f7ff fe84 	bl	800f7c4 <printk_putc>
 800fabc:	e7f1      	b.n	800faa2 <printk+0x3e>
		flags_used = 0;
		done = FALSE;
		while (!done) {
			switch (/* c = */*++p) {
			case '-':
				flags_used |= FLAGS_MINUS;
 800fabe:	f046 0601 	orr.w	r6, r6, #1
{
 800fac2:	4614      	mov	r4, r2
		while (!done) {
 800fac4:	2900      	cmp	r1, #0
 800fac6:	d13a      	bne.n	800fb3e <printk+0xda>
			switch (/* c = */*++p) {
 800fac8:	1c62      	adds	r2, r4, #1
 800faca:	7863      	ldrb	r3, [r4, #1]
 800facc:	3b20      	subs	r3, #32
 800face:	2b10      	cmp	r3, #16
 800fad0:	d833      	bhi.n	800fb3a <printk+0xd6>
 800fad2:	a001      	add	r0, pc, #4	; (adr r0, 800fad8 <printk+0x74>)
 800fad4:	f850 f023 	ldr.w	pc, [r0, r3, lsl #2]
 800fad8:	0800fb23 	.word	0x0800fb23
 800fadc:	0800fb3b 	.word	0x0800fb3b
 800fae0:	0800fb3b 	.word	0x0800fb3b
 800fae4:	0800fb2f 	.word	0x0800fb2f
 800fae8:	0800fb3b 	.word	0x0800fb3b
 800faec:	0800fb3b 	.word	0x0800fb3b
 800faf0:	0800fb3b 	.word	0x0800fb3b
 800faf4:	0800fb3b 	.word	0x0800fb3b
 800faf8:	0800fb3b 	.word	0x0800fb3b
 800fafc:	0800fb3b 	.word	0x0800fb3b
 800fb00:	0800fb3b 	.word	0x0800fb3b
 800fb04:	0800fb1d 	.word	0x0800fb1d
 800fb08:	0800fb3b 	.word	0x0800fb3b
 800fb0c:	0800fabf 	.word	0x0800fabf
 800fb10:	0800fb3b 	.word	0x0800fb3b
 800fb14:	0800fb3b 	.word	0x0800fb3b
 800fb18:	0800fb29 	.word	0x0800fb29
				break;
			case '+':
				flags_used |= FLAGS_PLUS;
 800fb1c:	f046 0602 	orr.w	r6, r6, #2
				break;
 800fb20:	e7cf      	b.n	800fac2 <printk+0x5e>
			case ' ':
				flags_used |= FLAGS_SPACE;
 800fb22:	f046 0604 	orr.w	r6, r6, #4
				break;
 800fb26:	e7cc      	b.n	800fac2 <printk+0x5e>
			case '0':
				flags_used |= FLAGS_ZERO;
 800fb28:	f046 0608 	orr.w	r6, r6, #8
				break;
 800fb2c:	e7c9      	b.n	800fac2 <printk+0x5e>
			case '#':
				flags_used |= FLAGS_POUND;
 800fb2e:	f046 0610 	orr.w	r6, r6, #16
				break;
 800fb32:	e7c6      	b.n	800fac2 <printk+0x5e>
		flags_used = 0;
 800fb34:	2600      	movs	r6, #0
		done = FALSE;
 800fb36:	4631      	mov	r1, r6
 800fb38:	e7c4      	b.n	800fac4 <printk+0x60>
			default:
				/* we've gone one char too far */
				--p;
				done = TRUE;
 800fb3a:	2101      	movs	r1, #1
 800fb3c:	e7c2      	b.n	800fac4 <printk+0x60>
			}
		}


		//检查%后再下一个字符 确定输出长度
		field_width = 0;
 800fb3e:	2500      	movs	r5, #0
		done = FALSE;
 800fb40:	462f      	mov	r7, r5
 800fb42:	e000      	b.n	800fb46 <printk+0xe2>
				field_width = (field_width * 10) + (c - '0');
				break;
			default:
				/* we've gone one char too far */
				--p;
				done = TRUE;
 800fb44:	460f      	mov	r7, r1
		while (!done) {
 800fb46:	b967      	cbnz	r7, 800fb62 <printk+0xfe>
			switch (c = *++p) {
 800fb48:	1c60      	adds	r0, r4, #1
 800fb4a:	7863      	ldrb	r3, [r4, #1]
 800fb4c:	f1a3 0230 	sub.w	r2, r3, #48	; 0x30
 800fb50:	2a09      	cmp	r2, #9
 800fb52:	d8f7      	bhi.n	800fb44 <printk+0xe0>
				field_width = (field_width * 10) + (c - '0');
 800fb54:	eb05 0585 	add.w	r5, r5, r5, lsl #2
 800fb58:	006a      	lsls	r2, r5, #1
 800fb5a:	3b30      	subs	r3, #48	; 0x30
 800fb5c:	18d5      	adds	r5, r2, r3
			switch (c = *++p) {
 800fb5e:	4604      	mov	r4, r0
				break;
 800fb60:	e7f1      	b.n	800fb46 <printk+0xe2>
				break;
			}
		}
		//此时字符为%看是否有.输入
		if (/* (c = *++p) */*++p == '.') {
 800fb62:	1c62      	adds	r2, r4, #1
 800fb64:	7863      	ldrb	r3, [r4, #1]
 800fb66:	2b2e      	cmp	r3, #46	; 0x2e
 800fb68:	d036      	beq.n	800fbd8 <printk+0x174>
		} else {
			/* we've gone one char too far */
			--p;
#if 1
			precision_used = FALSE;
			precision_width = 0;
 800fb6a:	f04f 0800 	mov.w	r8, #0
			precision_used = FALSE;
 800fb6e:	f8cd 8008 	str.w	r8, [sp, #8]
#endif
		}
		//判断 输出的是否有lf、LF等
		switch (/* c = */*++p) {
 800fb72:	1c63      	adds	r3, r4, #1
 800fb74:	7862      	ldrb	r2, [r4, #1]
 800fb76:	2a68      	cmp	r2, #104	; 0x68
 800fb78:	d004      	beq.n	800fb84 <printk+0x120>
 800fb7a:	2a6c      	cmp	r2, #108	; 0x6c
 800fb7c:	d042      	beq.n	800fc04 <printk+0x1a0>
 800fb7e:	2a4c      	cmp	r2, #76	; 0x4c
 800fb80:	d043      	beq.n	800fc0a <printk+0x1a6>
		case 'L':
			 length_modifier |= LENMOD_L;
			break;
		default:
			/* we've gone one char too far */
			--p;
 800fb82:	4623      	mov	r3, r4
			break;
		}

		//p为格式字符串的首地址
		switch (c = *++p) {
 800fb84:	1c5c      	adds	r4, r3, #1
 800fb86:	7858      	ldrb	r0, [r3, #1]
 800fb88:	f1a0 0358 	sub.w	r3, r0, #88	; 0x58
 800fb8c:	2b20      	cmp	r3, #32
 800fb8e:	f200 8238 	bhi.w	8010002 <printk+0x59e>
 800fb92:	e8df f013 	tbh	[pc, r3, lsl #1]
 800fb96:	011f      	.short	0x011f
 800fb98:	02360236 	.word	0x02360236
 800fb9c:	02360236 	.word	0x02360236
 800fba0:	02360236 	.word	0x02360236
 800fba4:	02360236 	.word	0x02360236
 800fba8:	01a20236 	.word	0x01a20236
 800fbac:	003d01ef 	.word	0x003d01ef
 800fbb0:	009a0236 	.word	0x009a0236
 800fbb4:	02360236 	.word	0x02360236
 800fbb8:	0236003d 	.word	0x0236003d
 800fbbc:	02360236 	.word	0x02360236
 800fbc0:	022f0236 	.word	0x022f0236
 800fbc4:	01b10184 	.word	0x01b10184
 800fbc8:	02360236 	.word	0x02360236
 800fbcc:	023601f9 	.word	0x023601f9
 800fbd0:	023601c0 	.word	0x023601c0
 800fbd4:	011f0236 	.word	0x011f0236
			precision_width = 0;
 800fbd8:	f04f 0800 	mov.w	r8, #0
			done = FALSE;
 800fbdc:	4640      	mov	r0, r8
 800fbde:	e000      	b.n	800fbe2 <printk+0x17e>
					done = TRUE;
 800fbe0:	4638      	mov	r0, r7
			while (!done) {
 800fbe2:	b968      	cbnz	r0, 800fc00 <printk+0x19c>
				switch ( c = *++p) {
 800fbe4:	1c54      	adds	r4, r2, #1
 800fbe6:	7853      	ldrb	r3, [r2, #1]
 800fbe8:	f1a3 0130 	sub.w	r1, r3, #48	; 0x30
 800fbec:	2909      	cmp	r1, #9
 800fbee:	d8f7      	bhi.n	800fbe0 <printk+0x17c>
				precision_width = (precision_width * 10) +	(c - '0');
 800fbf0:	eb08 0888 	add.w	r8, r8, r8, lsl #2
 800fbf4:	ea4f 0248 	mov.w	r2, r8, lsl #1
 800fbf8:	eb02 0801 	add.w	r8, r2, r1
				switch ( c = *++p) {
 800fbfc:	4622      	mov	r2, r4
					break;
 800fbfe:	e7f0      	b.n	800fbe2 <printk+0x17e>
 800fc00:	4614      	mov	r4, r2
 800fc02:	e7b6      	b.n	800fb72 <printk+0x10e>
			 length_modifier |= LENMOD_l;
 800fc04:	f04b 0b01 	orr.w	fp, fp, #1
			break;
 800fc08:	e7bc      	b.n	800fb84 <printk+0x120>
			 length_modifier |= LENMOD_L;
 800fc0a:	f04b 0b02 	orr.w	fp, fp, #2
			break;
 800fc0e:	e7b9      	b.n	800fb84 <printk+0x120>
		case 'd':
		case 'i':
			 //此时ap为指向可变参数列表的第一个参数
			ival = (int) va_arg(ap, int);  //返回当前参数，并将ap指向下一个参数
 800fc10:	f109 0704 	add.w	r7, r9, #4
 800fc14:	f8d9 3000 	ldr.w	r3, [r9]
 800fc18:	a916      	add	r1, sp, #88	; 0x58
 800fc1a:	f841 3d2c 	str.w	r3, [r1, #-44]!
			vlen = printk_mknumstr(vstr, &ival, TRUE, 10);//将整型转换成字符型保存在vstr中，返回字符数vlen
 800fc1e:	230a      	movs	r3, #10
 800fc20:	2201      	movs	r2, #1
 800fc22:	a80d      	add	r0, sp, #52	; 0x34
 800fc24:	f7ff fde3 	bl	800f7ee <printk_mknumstr>
 800fc28:	4682      	mov	sl, r0
			vstrp = &vstr[vlen];  //指向转换后的最后一个字符
 800fc2a:	ab0d      	add	r3, sp, #52	; 0x34
 800fc2c:	eb03 0800 	add.w	r8, r3, r0

			//若参数小于0，添加'-'号，并将字符长度加1
			if (ival < 0) {
 800fc30:	9b0b      	ldr	r3, [sp, #44]	; 0x2c
 800fc32:	2b00      	cmp	r3, #0
 800fc34:	db07      	blt.n	800fc46 <printk+0x1e2>
				schar = '-';
				++vlen;
			}
			//若参数不小于0，添加‘+’号或者‘ ’或者为0，并将字符长度加1
			else {
				if (IS_FLAG_PLUS(flags_used)) {
 800fc36:	f016 0f02 	tst.w	r6, #2
 800fc3a:	d017      	beq.n	800fc6c <printk+0x208>
					schar = '+';
					++vlen;
 800fc3c:	f100 0a01 	add.w	sl, r0, #1
					schar = '+';
 800fc40:	f04f 092b 	mov.w	r9, #43	; 0x2b
 800fc44:	e003      	b.n	800fc4e <printk+0x1ea>
				++vlen;
 800fc46:	f100 0a01 	add.w	sl, r0, #1
				schar = '-';
 800fc4a:	f04f 092d 	mov.w	r9, #45	; 0x2d
			dschar = FALSE;

			/*
			 * do the ZERO pad.
			 */
			if (IS_FLAG_ZERO(flags_used)) {
 800fc4e:	f016 0f08 	tst.w	r6, #8
 800fc52:	d019      	beq.n	800fc88 <printk+0x224>
				if (schar)
 800fc54:	f1b9 0f00 	cmp.w	r9, #0
 800fc58:	d110      	bne.n	800fc7c <printk+0x218>
					printk_putc(schar, &count, info);  //输出符号
				dschar = TRUE;
				printk_pad_zero(vlen, field_width, &count, info);
 800fc5a:	9b01      	ldr	r3, [sp, #4]
 800fc5c:	aa0c      	add	r2, sp, #48	; 0x30
 800fc5e:	4629      	mov	r1, r5
 800fc60:	4650      	mov	r0, sl
 800fc62:	f7ff fdf8 	bl	800f856 <printk_pad_zero>
				vlen = field_width;
 800fc66:	46aa      	mov	sl, r5
			ival = (int) va_arg(ap, int);  //返回当前参数，并将ap指向下一个参数
 800fc68:	46b9      	mov	r9, r7
 800fc6a:	e171      	b.n	800ff50 <printk+0x4ec>
					if (IS_FLAG_SPACE(flags_used)) {
 800fc6c:	f016 0904 	ands.w	r9, r6, #4
 800fc70:	d0ed      	beq.n	800fc4e <printk+0x1ea>
						++vlen;
 800fc72:	f100 0a01 	add.w	sl, r0, #1
						schar = ' ';
 800fc76:	f04f 0920 	mov.w	r9, #32
 800fc7a:	e7e8      	b.n	800fc4e <printk+0x1ea>
					printk_putc(schar, &count, info);  //输出符号
 800fc7c:	9a01      	ldr	r2, [sp, #4]
 800fc7e:	a90c      	add	r1, sp, #48	; 0x30
 800fc80:	4648      	mov	r0, r9
 800fc82:	f7ff fd9f 	bl	800f7c4 <printk_putc>
 800fc86:	e7e8      	b.n	800fc5a <printk+0x1f6>
			} else {
				if (!IS_FLAG_MINUS(flags_used)) {
 800fc88:	f016 0f01 	tst.w	r6, #1
 800fc8c:	d004      	beq.n	800fc98 <printk+0x234>
				}
			}

			/* the string was built in reverse order, now display in */
			/* correct order */
			if (!dschar && schar) {
 800fc8e:	f1b9 0f00 	cmp.w	r9, #0
 800fc92:	d113      	bne.n	800fcbc <printk+0x258>
			ival = (int) va_arg(ap, int);  //返回当前参数，并将ap指向下一个参数
 800fc94:	46b9      	mov	r9, r7
 800fc96:	e15b      	b.n	800ff50 <printk+0x4ec>
					printk_pad_space(vlen, field_width, &count, info);  //输出空格
 800fc98:	9b01      	ldr	r3, [sp, #4]
 800fc9a:	aa0c      	add	r2, sp, #48	; 0x30
 800fc9c:	4629      	mov	r1, r5
 800fc9e:	4650      	mov	r0, sl
 800fca0:	f7ff fde8 	bl	800f874 <printk_pad_space>
					if (schar)
 800fca4:	f1b9 0f00 	cmp.w	r9, #0
 800fca8:	d101      	bne.n	800fcae <printk+0x24a>
			ival = (int) va_arg(ap, int);  //返回当前参数，并将ap指向下一个参数
 800fcaa:	46b9      	mov	r9, r7
 800fcac:	e150      	b.n	800ff50 <printk+0x4ec>
						printk_putc(schar, &count, info);
 800fcae:	9a01      	ldr	r2, [sp, #4]
 800fcb0:	a90c      	add	r1, sp, #48	; 0x30
 800fcb2:	4648      	mov	r0, r9
 800fcb4:	f7ff fd86 	bl	800f7c4 <printk_putc>
			ival = (int) va_arg(ap, int);  //返回当前参数，并将ap指向下一个参数
 800fcb8:	46b9      	mov	r9, r7
 800fcba:	e149      	b.n	800ff50 <printk+0x4ec>
				printk_putc(schar, &count, info);
 800fcbc:	9a01      	ldr	r2, [sp, #4]
 800fcbe:	a90c      	add	r1, sp, #48	; 0x30
 800fcc0:	4648      	mov	r0, r9
 800fcc2:	f7ff fd7f 	bl	800f7c4 <printk_putc>
			ival = (int) va_arg(ap, int);  //返回当前参数，并将ap指向下一个参数
 800fcc6:	46b9      	mov	r9, r7
 800fcc8:	e142      	b.n	800ff50 <printk+0x4ec>
			//实际传入变参数 函数后 浮点数变为:0x6000000040091EB8 实际是将其转化为double型数据
			//但是顺序反了，我们要做的是将后四字节提前，然后把0x60移到紧接着前四个字节后的位置。
			
			//【20200816】  XSX，解决浮点数不优化问题
			ap=ap+4;
			fval= (double)va_arg(ap,double);
 800fcca:	f109 070c 	add.w	r7, r9, #12
 800fcce:	e9d9 9a01 	ldrd	r9, sl, [r9, #4]
 800fcd2:	e9cd 9a08 	strd	r9, sl, [sp, #32]
			
			//【20200816】  XSX，解决负数的浮点数输出问题
			//若参数小于0，添加'-'号，并将字符长度加1
			if (fval < 0) {
 800fcd6:	2200      	movs	r2, #0
 800fcd8:	2300      	movs	r3, #0
 800fcda:	4648      	mov	r0, r9
 800fcdc:	4651      	mov	r1, sl
 800fcde:	f7fe f9e5 	bl	800e0ac <__aeabi_dcmplt>
 800fce2:	b940      	cbnz	r0, 800fcf6 <printk+0x292>
				fval = -fval;				//负数取它的正数
				++vlen;
			}
			//若参数不小于0，添加‘+’号或者‘ ’或者为0，并将字符长度加1
			else {
				if (IS_FLAG_PLUS(flags_used)) {
 800fce4:	f016 0f02 	tst.w	r6, #2
 800fce8:	d12b      	bne.n	800fd42 <printk+0x2de>
					schar = '+';
					++vlen;
				} else {
					if (IS_FLAG_SPACE(flags_used)) {
 800fcea:	f016 0904 	ands.w	r9, r6, #4
 800fcee:	d00d      	beq.n	800fd0c <printk+0x2a8>
						schar = ' ';
 800fcf0:	f04f 0920 	mov.w	r9, #32
 800fcf4:	e00a      	b.n	800fd0c <printk+0x2a8>
				fval = -fval;				//负数取它的正数
 800fcf6:	f8cd 9010 	str.w	r9, [sp, #16]
 800fcfa:	f10a 4300 	add.w	r3, sl, #2147483648	; 0x80000000
 800fcfe:	9305      	str	r3, [sp, #20]
 800fd00:	ed9d 7b04 	vldr	d7, [sp, #16]
 800fd04:	ed8d 7b08 	vstr	d7, [sp, #32]
				schar = '-';
 800fd08:	f04f 092d 	mov.w	r9, #45	; 0x2d
				}
			}
			dschar = FALSE;
			
			//确定是否使用小数点精度数值
			if(precision_used)
 800fd0c:	9b02      	ldr	r3, [sp, #8]
 800fd0e:	b9db      	cbnz	r3, 800fd48 <printk+0x2e4>
				vlen = printk_mkfloatstr(&fval,vstr,precision_width);//将整型转换成字符型保存在vstr中，返回字符数vlen
				vstrp = &vstr[0];  //指向转换后的第一个字符
			}
			else
			{
				if(length_modifier==0)   //浮点型精度到小数点后8位
 800fd10:	f1bb 0f00 	cmp.w	fp, #0
 800fd14:	d11f      	bne.n	800fd56 <printk+0x2f2>
				{
					vlen = printk_mkfloatstr(&fval,vstr,6);//将整型转换成字符型保存在vstr中，返回字符数vlen
 800fd16:	2206      	movs	r2, #6
 800fd18:	a90d      	add	r1, sp, #52	; 0x34
 800fd1a:	a808      	add	r0, sp, #32
 800fd1c:	f7ff fdc0 	bl	800f8a0 <printk_mkfloatstr>
 800fd20:	4680      	mov	r8, r0
			

			/*
			 * do the ZERO pad.
			 */
			if (IS_FLAG_ZERO(flags_used)) {
 800fd22:	f016 0f08 	tst.w	r6, #8
 800fd26:	d023      	beq.n	800fd70 <printk+0x30c>
				if (schar)
 800fd28:	f1b9 0f00 	cmp.w	r9, #0
 800fd2c:	d11a      	bne.n	800fd64 <printk+0x300>
					printk_putc(schar, &count, info);  //输出符号
				dschar = TRUE;
				printk_pad_zero(vlen, field_width, &count, info);
 800fd2e:	9b01      	ldr	r3, [sp, #4]
 800fd30:	aa0c      	add	r2, sp, #48	; 0x30
 800fd32:	4629      	mov	r1, r5
 800fd34:	4640      	mov	r0, r8
 800fd36:	f7ff fd8e 	bl	800f856 <printk_pad_zero>
				vlen = field_width;
 800fd3a:	46a8      	mov	r8, r5
 800fd3c:	f10d 0934 	add.w	r9, sp, #52	; 0x34
 800fd40:	e037      	b.n	800fdb2 <printk+0x34e>
					schar = '+';
 800fd42:	f04f 092b 	mov.w	r9, #43	; 0x2b
 800fd46:	e7e1      	b.n	800fd0c <printk+0x2a8>
				vlen = printk_mkfloatstr(&fval,vstr,precision_width);//将整型转换成字符型保存在vstr中，返回字符数vlen
 800fd48:	4642      	mov	r2, r8
 800fd4a:	a90d      	add	r1, sp, #52	; 0x34
 800fd4c:	a808      	add	r0, sp, #32
 800fd4e:	f7ff fda7 	bl	800f8a0 <printk_mkfloatstr>
 800fd52:	4680      	mov	r8, r0
 800fd54:	e7e5      	b.n	800fd22 <printk+0x2be>
					vlen = printk_mkfloatstr(&fval,vstr,6);//将整型转换成字符型保存在vstr中，返回字符数vlen
 800fd56:	2206      	movs	r2, #6
 800fd58:	a90d      	add	r1, sp, #52	; 0x34
 800fd5a:	a808      	add	r0, sp, #32
 800fd5c:	f7ff fda0 	bl	800f8a0 <printk_mkfloatstr>
 800fd60:	4680      	mov	r8, r0
 800fd62:	e7de      	b.n	800fd22 <printk+0x2be>
					printk_putc(schar, &count, info);  //输出符号
 800fd64:	9a01      	ldr	r2, [sp, #4]
 800fd66:	a90c      	add	r1, sp, #48	; 0x30
 800fd68:	4648      	mov	r0, r9
 800fd6a:	f7ff fd2b 	bl	800f7c4 <printk_putc>
 800fd6e:	e7de      	b.n	800fd2e <printk+0x2ca>
			} else {
				if (!IS_FLAG_MINUS(flags_used)) {
 800fd70:	f016 0f01 	tst.w	r6, #1
 800fd74:	d008      	beq.n	800fd88 <printk+0x324>
				}
			}

			/* the string was built in reverse order, now display in */
			/* correct order */
			if (!dschar && schar) {
 800fd76:	f1b9 0f00 	cmp.w	r9, #0
 800fd7a:	d0df      	beq.n	800fd3c <printk+0x2d8>
				printk_putc(schar, &count, info);
 800fd7c:	9a01      	ldr	r2, [sp, #4]
 800fd7e:	a90c      	add	r1, sp, #48	; 0x30
 800fd80:	4648      	mov	r0, r9
 800fd82:	f7ff fd1f 	bl	800f7c4 <printk_putc>
 800fd86:	e7d9      	b.n	800fd3c <printk+0x2d8>
					printk_pad_space(vlen, field_width, &count, info);  //输出空格
 800fd88:	9b01      	ldr	r3, [sp, #4]
 800fd8a:	aa0c      	add	r2, sp, #48	; 0x30
 800fd8c:	4629      	mov	r1, r5
 800fd8e:	4640      	mov	r0, r8
 800fd90:	f7ff fd70 	bl	800f874 <printk_pad_space>
					if (schar)
 800fd94:	f1b9 0f00 	cmp.w	r9, #0
 800fd98:	d0d0      	beq.n	800fd3c <printk+0x2d8>
						printk_putc(schar, &count, info);
 800fd9a:	9a01      	ldr	r2, [sp, #4]
 800fd9c:	a90c      	add	r1, sp, #48	; 0x30
 800fd9e:	4648      	mov	r0, r9
 800fda0:	f7ff fd10 	bl	800f7c4 <printk_putc>
 800fda4:	e7ca      	b.n	800fd3c <printk+0x2d8>
			}
			while (*vstrp)
				printk_putc(*vstrp++, &count, info);
 800fda6:	f109 0901 	add.w	r9, r9, #1
 800fdaa:	9a01      	ldr	r2, [sp, #4]
 800fdac:	a90c      	add	r1, sp, #48	; 0x30
 800fdae:	f7ff fd09 	bl	800f7c4 <printk_putc>
			while (*vstrp)
 800fdb2:	f899 0000 	ldrb.w	r0, [r9]
 800fdb6:	2800      	cmp	r0, #0
 800fdb8:	d1f5      	bne.n	800fda6 <printk+0x342>
			if (IS_FLAG_MINUS(flags_used)) {
 800fdba:	f016 0f01 	tst.w	r6, #1
 800fdbe:	d101      	bne.n	800fdc4 <printk+0x360>
			fval= (double)va_arg(ap,double);
 800fdc0:	46b9      	mov	r9, r7
 800fdc2:	e66e      	b.n	800faa2 <printk+0x3e>
				printk_pad_space(vlen, field_width, &count, info);
 800fdc4:	9b01      	ldr	r3, [sp, #4]
 800fdc6:	aa0c      	add	r2, sp, #48	; 0x30
 800fdc8:	4629      	mov	r1, r5
 800fdca:	4640      	mov	r0, r8
 800fdcc:	f7ff fd52 	bl	800f874 <printk_pad_space>
			fval= (double)va_arg(ap,double);
 800fdd0:	46b9      	mov	r9, r7
 800fdd2:	e666      	b.n	800faa2 <printk+0x3e>
			}
            break;
        //以下是16进制整形输出
		case 'x':
		case 'X':
			uval = (unsigned int) va_arg(ap, unsigned int);
 800fdd4:	f109 0304 	add.w	r3, r9, #4
 800fdd8:	9303      	str	r3, [sp, #12]
 800fdda:	f8d9 3000 	ldr.w	r3, [r9]
 800fdde:	a916      	add	r1, sp, #88	; 0x58
 800fde0:	f841 3d3c 	str.w	r3, [r1, #-60]!
			vlen = printk_mknumstr(vstr, &uval, FALSE, 16);
 800fde4:	2310      	movs	r3, #16
 800fde6:	2200      	movs	r2, #0
 800fde8:	a80d      	add	r0, sp, #52	; 0x34
 800fdea:	f7ff fd00 	bl	800f7ee <printk_mknumstr>
 800fdee:	4682      	mov	sl, r0
			vstrp = &vstr[vlen];
 800fdf0:	ab0d      	add	r3, sp, #52	; 0x34
 800fdf2:	eb03 0800 	add.w	r8, r3, r0

			dschar = FALSE;
			if (IS_FLAG_ZERO(flags_used)) {
 800fdf6:	f016 0908 	ands.w	r9, r6, #8
 800fdfa:	d021      	beq.n	800fe40 <printk+0x3dc>
				if (IS_FLAG_POUND(flags_used)) {
 800fdfc:	f016 0910 	ands.w	r9, r6, #16
 800fe00:	d110      	bne.n	800fe24 <printk+0x3c0>
					printk_putc('0', &count, info);
					printk_putc('x', &count, info);
					/*vlen += 2;*/
					dschar = TRUE;
				}
				printk_pad_zero(vlen, field_width, &count, info);
 800fe02:	9b01      	ldr	r3, [sp, #4]
 800fe04:	aa0c      	add	r2, sp, #48	; 0x30
 800fe06:	4629      	mov	r1, r5
 800fe08:	4650      	mov	r0, sl
 800fe0a:	f7ff fd24 	bl	800f856 <printk_pad_zero>
				vlen = field_width;
 800fe0e:	46aa      	mov	sl, r5
						dschar = TRUE;
					}
				}
			}

			if ((IS_FLAG_POUND(flags_used)) && !dschar) {
 800fe10:	f016 0f10 	tst.w	r6, #16
 800fe14:	f000 80ab 	beq.w	800ff6e <printk+0x50a>
 800fe18:	f1b9 0f00 	cmp.w	r9, #0
 800fe1c:	d02f      	beq.n	800fe7e <printk+0x41a>
			uval = (unsigned int) va_arg(ap, unsigned int);
 800fe1e:	f8dd 900c 	ldr.w	r9, [sp, #12]
 800fe22:	e095      	b.n	800ff50 <printk+0x4ec>
					printk_putc('0', &count, info);
 800fe24:	f8dd 9004 	ldr.w	r9, [sp, #4]
 800fe28:	464a      	mov	r2, r9
 800fe2a:	a90c      	add	r1, sp, #48	; 0x30
 800fe2c:	2030      	movs	r0, #48	; 0x30
 800fe2e:	f7ff fcc9 	bl	800f7c4 <printk_putc>
					printk_putc('x', &count, info);
 800fe32:	464a      	mov	r2, r9
 800fe34:	a90c      	add	r1, sp, #48	; 0x30
 800fe36:	2078      	movs	r0, #120	; 0x78
 800fe38:	f7ff fcc4 	bl	800f7c4 <printk_putc>
					dschar = TRUE;
 800fe3c:	46b9      	mov	r9, r7
 800fe3e:	e7e0      	b.n	800fe02 <printk+0x39e>
				if (!IS_FLAG_MINUS(flags_used)) {
 800fe40:	f016 0f01 	tst.w	r6, #1
 800fe44:	d1e4      	bne.n	800fe10 <printk+0x3ac>
					if (IS_FLAG_POUND(flags_used)) {
 800fe46:	f016 0910 	ands.w	r9, r6, #16
 800fe4a:	d001      	beq.n	800fe50 <printk+0x3ec>
						vlen += 2;
 800fe4c:	f100 0a02 	add.w	sl, r0, #2
					printk_pad_space(vlen, field_width, &count, info);
 800fe50:	9b01      	ldr	r3, [sp, #4]
 800fe52:	aa0c      	add	r2, sp, #48	; 0x30
 800fe54:	4629      	mov	r1, r5
 800fe56:	4650      	mov	r0, sl
 800fe58:	f7ff fd0c 	bl	800f874 <printk_pad_space>
					if (IS_FLAG_POUND(flags_used)) {
 800fe5c:	f1b9 0f00 	cmp.w	r9, #0
 800fe60:	d0d6      	beq.n	800fe10 <printk+0x3ac>
						printk_putc('0', &count, info);
 800fe62:	f8dd 9004 	ldr.w	r9, [sp, #4]
 800fe66:	464a      	mov	r2, r9
 800fe68:	a90c      	add	r1, sp, #48	; 0x30
 800fe6a:	2030      	movs	r0, #48	; 0x30
 800fe6c:	f7ff fcaa 	bl	800f7c4 <printk_putc>
						printk_putc('x', &count, info);
 800fe70:	464a      	mov	r2, r9
 800fe72:	a90c      	add	r1, sp, #48	; 0x30
 800fe74:	2078      	movs	r0, #120	; 0x78
 800fe76:	f7ff fca5 	bl	800f7c4 <printk_putc>
						dschar = TRUE;
 800fe7a:	46b9      	mov	r9, r7
 800fe7c:	e7c8      	b.n	800fe10 <printk+0x3ac>
				printk_putc('0', &count, info);
 800fe7e:	9f01      	ldr	r7, [sp, #4]
 800fe80:	463a      	mov	r2, r7
 800fe82:	a90c      	add	r1, sp, #48	; 0x30
 800fe84:	2030      	movs	r0, #48	; 0x30
 800fe86:	f7ff fc9d 	bl	800f7c4 <printk_putc>
				printk_putc('x', &count, info);
 800fe8a:	463a      	mov	r2, r7
 800fe8c:	a90c      	add	r1, sp, #48	; 0x30
 800fe8e:	2078      	movs	r0, #120	; 0x78
 800fe90:	f7ff fc98 	bl	800f7c4 <printk_putc>
				vlen += 2;
 800fe94:	f10a 0a02 	add.w	sl, sl, #2
			uval = (unsigned int) va_arg(ap, unsigned int);
 800fe98:	f8dd 900c 	ldr.w	r9, [sp, #12]
 800fe9c:	e058      	b.n	800ff50 <printk+0x4ec>
			}
			goto cont_xd;
		//无符号以八进制表示的整数输出
		case 'o':
			uval = (unsigned int) va_arg(ap, unsigned int);
 800fe9e:	f109 0704 	add.w	r7, r9, #4
 800fea2:	f8d9 3000 	ldr.w	r3, [r9]
 800fea6:	a916      	add	r1, sp, #88	; 0x58
 800fea8:	f841 3d3c 	str.w	r3, [r1, #-60]!
			vlen = printk_mknumstr(vstr, &uval, FALSE, 8);
 800feac:	2308      	movs	r3, #8
 800feae:	2200      	movs	r2, #0
 800feb0:	a80d      	add	r0, sp, #52	; 0x34
 800feb2:	f7ff fc9c 	bl	800f7ee <printk_mknumstr>
 800feb6:	4682      	mov	sl, r0
			uval = (unsigned int) va_arg(ap, unsigned int);
 800feb8:	46b9      	mov	r9, r7
			goto cont_u;
		case 'u':
			uval = (unsigned int) va_arg(ap, unsigned int);
			vlen = printk_mknumstr(vstr, &uval, FALSE, 10);

			cont_u: vstrp = &vstr[vlen];
 800feba:	ab0d      	add	r3, sp, #52	; 0x34
 800febc:	eb03 080a 	add.w	r8, r3, sl

			if (IS_FLAG_ZERO(flags_used)) {
 800fec0:	f016 0f08 	tst.w	r6, #8
 800fec4:	d136      	bne.n	800ff34 <printk+0x4d0>
				printk_pad_zero(vlen, field_width, &count, info);
				vlen = field_width;
			} else {
				if (!IS_FLAG_MINUS(flags_used)) {
 800fec6:	f016 0f01 	tst.w	r6, #1
 800feca:	d141      	bne.n	800ff50 <printk+0x4ec>
					printk_pad_space(vlen, field_width, &count, info);
 800fecc:	9b01      	ldr	r3, [sp, #4]
 800fece:	aa0c      	add	r2, sp, #48	; 0x30
 800fed0:	4629      	mov	r1, r5
 800fed2:	4650      	mov	r0, sl
 800fed4:	f7ff fcce 	bl	800f874 <printk_pad_space>
 800fed8:	e03a      	b.n	800ff50 <printk+0x4ec>
			uval = (unsigned int) va_arg(ap, unsigned int);
 800feda:	f109 0704 	add.w	r7, r9, #4
 800fede:	f8d9 3000 	ldr.w	r3, [r9]
 800fee2:	a916      	add	r1, sp, #88	; 0x58
 800fee4:	f841 3d3c 	str.w	r3, [r1, #-60]!
			vlen = printk_mknumstr(vstr, &uval, FALSE, 2);
 800fee8:	2302      	movs	r3, #2
 800feea:	2200      	movs	r2, #0
 800feec:	a80d      	add	r0, sp, #52	; 0x34
 800feee:	f7ff fc7e 	bl	800f7ee <printk_mknumstr>
 800fef2:	4682      	mov	sl, r0
			uval = (unsigned int) va_arg(ap, unsigned int);
 800fef4:	46b9      	mov	r9, r7
			goto cont_u;
 800fef6:	e7e0      	b.n	800feba <printk+0x456>
			uval = (unsigned int) va_arg(ap, void *);
 800fef8:	f109 0704 	add.w	r7, r9, #4
 800fefc:	f8d9 3000 	ldr.w	r3, [r9]
 800ff00:	a916      	add	r1, sp, #88	; 0x58
 800ff02:	f841 3d3c 	str.w	r3, [r1, #-60]!
			vlen = printk_mknumstr(vstr, &uval, FALSE, 16);
 800ff06:	2310      	movs	r3, #16
 800ff08:	2200      	movs	r2, #0
 800ff0a:	a80d      	add	r0, sp, #52	; 0x34
 800ff0c:	f7ff fc6f 	bl	800f7ee <printk_mknumstr>
 800ff10:	4682      	mov	sl, r0
			uval = (unsigned int) va_arg(ap, void *);
 800ff12:	46b9      	mov	r9, r7
			goto cont_u;
 800ff14:	e7d1      	b.n	800feba <printk+0x456>
			uval = (unsigned int) va_arg(ap, unsigned int);
 800ff16:	f109 0704 	add.w	r7, r9, #4
 800ff1a:	f8d9 3000 	ldr.w	r3, [r9]
 800ff1e:	a916      	add	r1, sp, #88	; 0x58
 800ff20:	f841 3d3c 	str.w	r3, [r1, #-60]!
			vlen = printk_mknumstr(vstr, &uval, FALSE, 10);
 800ff24:	230a      	movs	r3, #10
 800ff26:	2200      	movs	r2, #0
 800ff28:	a80d      	add	r0, sp, #52	; 0x34
 800ff2a:	f7ff fc60 	bl	800f7ee <printk_mknumstr>
 800ff2e:	4682      	mov	sl, r0
			uval = (unsigned int) va_arg(ap, unsigned int);
 800ff30:	46b9      	mov	r9, r7
 800ff32:	e7c2      	b.n	800feba <printk+0x456>
				printk_pad_zero(vlen, field_width, &count, info);
 800ff34:	9b01      	ldr	r3, [sp, #4]
 800ff36:	aa0c      	add	r2, sp, #48	; 0x30
 800ff38:	4629      	mov	r1, r5
 800ff3a:	4650      	mov	r0, sl
 800ff3c:	f7ff fc8b 	bl	800f856 <printk_pad_zero>
				vlen = field_width;
 800ff40:	46aa      	mov	sl, r5
 800ff42:	e005      	b.n	800ff50 <printk+0x4ec>
				}
			}

			cont_xd: while (*vstrp)
				printk_putc(*vstrp--, &count, info);
 800ff44:	f108 38ff 	add.w	r8, r8, #4294967295
 800ff48:	9a01      	ldr	r2, [sp, #4]
 800ff4a:	a90c      	add	r1, sp, #48	; 0x30
 800ff4c:	f7ff fc3a 	bl	800f7c4 <printk_putc>
			cont_xd: while (*vstrp)
 800ff50:	f898 0000 	ldrb.w	r0, [r8]
 800ff54:	2800      	cmp	r0, #0
 800ff56:	d1f5      	bne.n	800ff44 <printk+0x4e0>

			if (IS_FLAG_MINUS(flags_used)) {
 800ff58:	f016 0f01 	tst.w	r6, #1
 800ff5c:	f43f ada1 	beq.w	800faa2 <printk+0x3e>
				printk_pad_space(vlen, field_width, &count, info);
 800ff60:	9b01      	ldr	r3, [sp, #4]
 800ff62:	aa0c      	add	r2, sp, #48	; 0x30
 800ff64:	4629      	mov	r1, r5
 800ff66:	4650      	mov	r0, sl
 800ff68:	f7ff fc84 	bl	800f874 <printk_pad_space>
 800ff6c:	e599      	b.n	800faa2 <printk+0x3e>
			uval = (unsigned int) va_arg(ap, unsigned int);
 800ff6e:	f8dd 900c 	ldr.w	r9, [sp, #12]
 800ff72:	e7ed      	b.n	800ff50 <printk+0x4ec>
			}

			break;
        //字符型输出
		case 'c':
			cval = (char) va_arg(ap, unsigned int);
 800ff74:	f109 0504 	add.w	r5, r9, #4
			printk_putc(cval, &count, info);
 800ff78:	9a01      	ldr	r2, [sp, #4]
 800ff7a:	a90c      	add	r1, sp, #48	; 0x30
 800ff7c:	f899 0000 	ldrb.w	r0, [r9]
 800ff80:	f7ff fc20 	bl	800f7c4 <printk_putc>
			cval = (char) va_arg(ap, unsigned int);
 800ff84:	46a9      	mov	r9, r5
			break;
 800ff86:	e58c      	b.n	800faa2 <printk+0x3e>
		case 's':
			sval = (char *) va_arg(ap, char *);
 800ff88:	f109 0a04 	add.w	sl, r9, #4
 800ff8c:	f8d9 7000 	ldr.w	r7, [r9]
			if (sval) {
 800ff90:	2f00      	cmp	r7, #0
 800ff92:	d03b      	beq.n	801000c <printk+0x5a8>
				vlen = strlen(sval);
 800ff94:	4638      	mov	r0, r7
 800ff96:	f7fd fc53 	bl	800d840 <strlen>
 800ff9a:	4681      	mov	r9, r0
				if (!IS_FLAG_MINUS(flags_used)) {
 800ff9c:	f016 0601 	ands.w	r6, r6, #1
 800ffa0:	d00f      	beq.n	800ffc2 <printk+0x55e>
					printk_pad_space(vlen, field_width, &count, info);
				}
				if(precision_width!=0)
 800ffa2:	f1b8 0f00 	cmp.w	r8, #0
 800ffa6:	d017      	beq.n	800ffd8 <printk+0x574>
				{
					while (*sval)
 800ffa8:	7838      	ldrb	r0, [r7, #0]
 800ffaa:	b1c0      	cbz	r0, 800ffde <printk+0x57a>
					{
						if(precision_width>=1)
 800ffac:	f1b8 0f00 	cmp.w	r8, #0
 800ffb0:	ddfa      	ble.n	800ffa8 <printk+0x544>
						{
							precision_width--;
 800ffb2:	f108 38ff 	add.w	r8, r8, #4294967295
							printk_putc(*sval++, &count, info);
 800ffb6:	3701      	adds	r7, #1
 800ffb8:	9a01      	ldr	r2, [sp, #4]
 800ffba:	a90c      	add	r1, sp, #48	; 0x30
 800ffbc:	f7ff fc02 	bl	800f7c4 <printk_putc>
 800ffc0:	e7f2      	b.n	800ffa8 <printk+0x544>
					printk_pad_space(vlen, field_width, &count, info);
 800ffc2:	9b01      	ldr	r3, [sp, #4]
 800ffc4:	aa0c      	add	r2, sp, #48	; 0x30
 800ffc6:	4629      	mov	r1, r5
 800ffc8:	f7ff fc54 	bl	800f874 <printk_pad_space>
 800ffcc:	e7e9      	b.n	800ffa2 <printk+0x53e>
					}
				}
				else    //precision_width=0情况
				{
					while (*sval)
					   printk_putc(*sval++, &count, info);
 800ffce:	3701      	adds	r7, #1
 800ffd0:	9a01      	ldr	r2, [sp, #4]
 800ffd2:	a90c      	add	r1, sp, #48	; 0x30
 800ffd4:	f7ff fbf6 	bl	800f7c4 <printk_putc>
					while (*sval)
 800ffd8:	7838      	ldrb	r0, [r7, #0]
 800ffda:	2800      	cmp	r0, #0
 800ffdc:	d1f7      	bne.n	800ffce <printk+0x56a>
				}
				if (IS_FLAG_MINUS(flags_used)) {
 800ffde:	b90e      	cbnz	r6, 800ffe4 <printk+0x580>
			sval = (char *) va_arg(ap, char *);
 800ffe0:	46d1      	mov	r9, sl
 800ffe2:	e55e      	b.n	800faa2 <printk+0x3e>
					printk_pad_space(vlen, field_width, &count, info);
 800ffe4:	9b01      	ldr	r3, [sp, #4]
 800ffe6:	aa0c      	add	r2, sp, #48	; 0x30
 800ffe8:	4629      	mov	r1, r5
 800ffea:	4648      	mov	r0, r9
 800ffec:	f7ff fc42 	bl	800f874 <printk_pad_space>
			sval = (char *) va_arg(ap, char *);
 800fff0:	46d1      	mov	r9, sl
 800fff2:	e556      	b.n	800faa2 <printk+0x3e>
				}
			}
			break;
		case 'n':
			ivalp = (int *) va_arg(ap, int *);
 800fff4:	f8d9 3000 	ldr.w	r3, [r9]
			*ivalp = count;
 800fff8:	9a0c      	ldr	r2, [sp, #48]	; 0x30
 800fffa:	601a      	str	r2, [r3, #0]
			ivalp = (int *) va_arg(ap, int *);
 800fffc:	f109 0904 	add.w	r9, r9, #4
			break;
 8010000:	e54f      	b.n	800faa2 <printk+0x3e>

		default:
			printk_putc(c, &count, info);
 8010002:	9a01      	ldr	r2, [sp, #4]
 8010004:	a90c      	add	r1, sp, #48	; 0x30
 8010006:	f7ff fbdd 	bl	800f7c4 <printk_putc>
			break;
 801000a:	e54a      	b.n	800faa2 <printk+0x3e>
			sval = (char *) va_arg(ap, char *);
 801000c:	46d1      	mov	r9, sl
 801000e:	e548      	b.n	800faa2 <printk+0x3e>
		}
	}
	return count;
}
 8010010:	980c      	ldr	r0, [sp, #48]	; 0x30
 8010012:	b017      	add	sp, #92	; 0x5c
 8010014:	e8bd 8ff0 	ldmia.w	sp!, {r4, r5, r6, r7, r8, r9, sl, fp, pc}

08010018 <myprintf>:
//参数说明：const char *:打印参数字符串：对输入的字符串进行解析并按格式输出
//       例如： printf("c=%c\n",c); 将c按char型进行输出
//函数返回：字符串长度
//======================================================================
int myprintf(const char *fmt, ...)
{
 8010018:	b40f      	push	{r0, r1, r2, r3}
 801001a:	b500      	push	{lr}
 801001c:	b085      	sub	sp, #20
	char * ap;
	int rvalue;
	PRINTK_INFO info;
	info.dest = DEST_CONSOLE;  //宏定义为1
 801001e:	2301      	movs	r3, #1
 8010020:	9301      	str	r3, [sp, #4]
	info.func = &out_char;     //调用的串口输出函数
 8010022:	4b06      	ldr	r3, [pc, #24]	; (801003c <myprintf+0x24>)
 8010024:	9302      	str	r3, [sp, #8]
	va_start(ap, fmt);  //对ap 进行初始化，让它指向可变参数表里面的第一个参数
	rvalue = printk(&info, fmt, ap);
 8010026:	aa06      	add	r2, sp, #24
 8010028:	f852 1b04 	ldr.w	r1, [r2], #4
 801002c:	a801      	add	r0, sp, #4
 801002e:	f7ff fd19 	bl	800fa64 <printk>

	va_end(ap);

	return rvalue;
}
 8010032:	b005      	add	sp, #20
 8010034:	f85d eb04 	ldr.w	lr, [sp], #4
 8010038:	b004      	add	sp, #16
 801003a:	4770      	bx	lr
 801003c:	0800f893 	.word	0x0800f893

08010040 <Reset_Handler>:

    .section	.text.Reset_Handler
	.weak	Reset_Handler
	.type	Reset_Handler, %function
Reset_Handler:
  ldr   sp, =_estack    /* Atollic update: set stack pointer */
 8010040:	f8df d038 	ldr.w	sp, [pc, #56]	; 801007c <LoopForever+0x2>

/* Copy the data segment initializers from flash to SRAM */
  movs	r1, #0
 8010044:	2100      	movs	r1, #0
  b	LoopCopyDataInit
 8010046:	e003      	b.n	8010050 <LoopCopyDataInit>

08010048 <CopyDataInit>:

CopyDataInit:
	ldr	r3, =_sidata
 8010048:	4b0d      	ldr	r3, [pc, #52]	; (8010080 <LoopForever+0x6>)
	ldr	r3, [r3, r1]
 801004a:	585b      	ldr	r3, [r3, r1]
	str	r3, [r0, r1]
 801004c:	5043      	str	r3, [r0, r1]
	adds	r1, r1, #4
 801004e:	3104      	adds	r1, #4

08010050 <LoopCopyDataInit>:

LoopCopyDataInit:
	ldr	r0, =_sdata
 8010050:	480c      	ldr	r0, [pc, #48]	; (8010084 <LoopForever+0xa>)
	ldr	r3, =_edata
 8010052:	4b0d      	ldr	r3, [pc, #52]	; (8010088 <LoopForever+0xe>)
	adds	r2, r0, r1
 8010054:	1842      	adds	r2, r0, r1
	cmp	r2, r3
 8010056:	429a      	cmp	r2, r3
	bcc	CopyDataInit
 8010058:	d3f6      	bcc.n	8010048 <CopyDataInit>
	ldr	r2, =_sbss
 801005a:	4a0c      	ldr	r2, [pc, #48]	; (801008c <LoopForever+0x12>)
	b	LoopFillZerobss
 801005c:	e002      	b.n	8010064 <LoopFillZerobss>

0801005e <FillZerobss>:
/* Zero fill the bss segment. */
FillZerobss:
	movs	r3, #0
 801005e:	2300      	movs	r3, #0
	str	r3, [r2], #4
 8010060:	f842 3b04 	str.w	r3, [r2], #4

08010064 <LoopFillZerobss>:

LoopFillZerobss:
	ldr	r3, = _ebss
 8010064:	4b0a      	ldr	r3, [pc, #40]	; (8010090 <LoopForever+0x16>)
	cmp	r2, r3
 8010066:	429a      	cmp	r2, r3
	bcc	FillZerobss
 8010068:	d3f9      	bcc.n	801005e <FillZerobss>
	
	//* Call the clock system intitialization function.*/
    bl  SystemInit
 801006a:	f7fe facf 	bl	800e60c <SystemInit>
//  【CC_User 2.1】调用BIOS_API_Init函数
    bl  Vectors_Init    /*【固定】中断继承，.s文件仅修改此处*/
 801006e:	f7fe ff6d 	bl	800ef4c <Vectors_Init>
/* Call static constructors */
//  【CC_User 2.2】1.需调用__libc_init_array，若不执行则C++类构造函数不会执行
//                2.__libc_init_array函数须在BIOS_API_Init之后执行
//                3.__libc_init_array函数的具体功能待进一步了解
    bl __libc_init_array
 8010072:	f000 f813 	bl	801009c <__libc_init_array>
/* Call the application's entry point.*/
	bl	main
 8010076:	f7fe fba1 	bl	800e7bc <main>

0801007a <LoopForever>:
	


LoopForever:
    b LoopForever
 801007a:	e7fe      	b.n	801007a <LoopForever>
  ldr   sp, =_estack    /* Atollic update: set stack pointer */
 801007c:	2000ffff 	.word	0x2000ffff
	ldr	r3, =_sidata
 8010080:	08010828 	.word	0x08010828
	ldr	r0, =_sdata
 8010084:	20004000 	.word	0x20004000
	ldr	r3, =_edata
 8010088:	2000403c 	.word	0x2000403c
	ldr	r2, =_sbss
 801008c:	20004040 	.word	0x20004040
	ldr	r3, = _ebss
 8010090:	200048e4 	.word	0x200048e4

08010094 <ADC1_IRQHandler>:
*/
    .section	.text.Default_Handler,"ax",%progbits
Default_Handler:
    //Infinite_Loop:
	//b	Infinite_Loop
	push  {lr}        //【20200812】修改.s文件，缺省中断，直接返回
 8010094:	b500      	push	{lr}
    nop
 8010096:	bf00      	nop
    pop   {pc}
 8010098:	bd00      	pop	{pc}
	...

0801009c <__libc_init_array>:
 801009c:	b570      	push	{r4, r5, r6, lr}
 801009e:	4e0d      	ldr	r6, [pc, #52]	; (80100d4 <__libc_init_array+0x38>)
 80100a0:	4c0d      	ldr	r4, [pc, #52]	; (80100d8 <__libc_init_array+0x3c>)
 80100a2:	1ba4      	subs	r4, r4, r6
 80100a4:	10a4      	asrs	r4, r4, #2
 80100a6:	2500      	movs	r5, #0
 80100a8:	42a5      	cmp	r5, r4
 80100aa:	d109      	bne.n	80100c0 <__libc_init_array+0x24>
 80100ac:	4e0b      	ldr	r6, [pc, #44]	; (80100dc <__libc_init_array+0x40>)
 80100ae:	4c0c      	ldr	r4, [pc, #48]	; (80100e0 <__libc_init_array+0x44>)
 80100b0:	f000 f82c 	bl	801010c <_init>
 80100b4:	1ba4      	subs	r4, r4, r6
 80100b6:	10a4      	asrs	r4, r4, #2
 80100b8:	2500      	movs	r5, #0
 80100ba:	42a5      	cmp	r5, r4
 80100bc:	d105      	bne.n	80100ca <__libc_init_array+0x2e>
 80100be:	bd70      	pop	{r4, r5, r6, pc}
 80100c0:	f856 3025 	ldr.w	r3, [r6, r5, lsl #2]
 80100c4:	4798      	blx	r3
 80100c6:	3501      	adds	r5, #1
 80100c8:	e7ee      	b.n	80100a8 <__libc_init_array+0xc>
 80100ca:	f856 3025 	ldr.w	r3, [r6, r5, lsl #2]
 80100ce:	4798      	blx	r3
 80100d0:	3501      	adds	r5, #1
 80100d2:	e7f2      	b.n	80100ba <__libc_init_array+0x1e>
 80100d4:	08010818 	.word	0x08010818
 80100d8:	08010818 	.word	0x08010818
 80100dc:	08010818 	.word	0x08010818
 80100e0:	0801081c 	.word	0x0801081c

080100e4 <memcpy>:
 80100e4:	b510      	push	{r4, lr}
 80100e6:	1e43      	subs	r3, r0, #1
 80100e8:	440a      	add	r2, r1
 80100ea:	4291      	cmp	r1, r2
 80100ec:	d100      	bne.n	80100f0 <memcpy+0xc>
 80100ee:	bd10      	pop	{r4, pc}
 80100f0:	f811 4b01 	ldrb.w	r4, [r1], #1
 80100f4:	f803 4f01 	strb.w	r4, [r3, #1]!
 80100f8:	e7f7      	b.n	80100ea <memcpy+0x6>

080100fa <memset>:
 80100fa:	4402      	add	r2, r0
 80100fc:	4603      	mov	r3, r0
 80100fe:	4293      	cmp	r3, r2
 8010100:	d100      	bne.n	8010104 <memset+0xa>
 8010102:	4770      	bx	lr
 8010104:	f803 1b01 	strb.w	r1, [r3], #1
 8010108:	e7f9      	b.n	80100fe <memset+0x4>
	...

0801010c <_init>:
 801010c:	b5f8      	push	{r3, r4, r5, r6, r7, lr}
 801010e:	bf00      	nop
 8010110:	bcf8      	pop	{r3, r4, r5, r6, r7}
 8010112:	bc08      	pop	{r3}
 8010114:	469e      	mov	lr, r3
 8010116:	4770      	bx	lr

08010118 <_fini>:
 8010118:	b5f8      	push	{r3, r4, r5, r6, r7, lr}
 801011a:	bf00      	nop
 801011c:	bcf8      	pop	{r3, r4, r5, r6, r7}
 801011e:	bc08      	pop	{r3}
 8010120:	469e      	mov	lr, r3
 8010122:	4770      	bx	lr
 8010124:	0000      	movs	r0, r0
	...
